                              1 ;--------------------------------------------------------
                              2 ; File Created by SDCC : FreeWare ANSI-C Compiler
                              3 ; Version 2.2.1 Sun Feb 02 02:24:34 2020
                              4 
                              5 ;--------------------------------------------------------
                              6 	.module lcc181720
                              7 	
                              8 ;--------------------------------------------------------
                              9 ; Public variables in this module
                             10 ;--------------------------------------------------------
                             11 	.globl _main
                             12 	.globl _init
                             13 	.globl _init_music
                             14 	.globl _animate_player
                             15 	.globl _process_input
                             16 	.globl _process_player_position
                             17 	.globl _scroll_player_sprite
                             18 	.globl _requires_offset
                             19 	.globl _splash
                             20 	.globl _fadein
                             21 	.globl _fadeout
                             22 	.globl _play_sound
                             23 	.globl _generate_random_number
                             24 	.globl _cicled_delay
                             25 	.globl _gbt_update
                             26 	.globl _gbt_loop
                             27 	.globl _gbt_play
                             28 	.globl _rand
                             29 	.globl _scroll_sprite
                             30 	.globl _move_sprite
                             31 	.globl _get_sprite_prop
                             32 	.globl _set_sprite_prop
                             33 	.globl _set_sprite_tile
                             34 	.globl _set_sprite_data
                             35 	.globl _set_bkg_tiles
                             36 	.globl _set_bkg_data
                             37 	.globl _wait_vbl_done
                             38 	.globl _set_interrupts
                             39 	.globl _disable_interrupts
                             40 	.globl _enable_interrupts
                             41 	.globl _waitpad
                             42 	.globl _joypad
                             43 	.globl _player_new_y
                             44 	.globl _player_new_x
                             45 	.globl _player_y
                             46 	.globl _player_x
                             47 	.globl _positions
                             48 	.globl _movements
                             49 	.globl _timer
                             50 	.globl _player_direction
                             51 	.globl _frame_counter
                             52 	.globl _has_reached
                             53 	.globl _requires_scrolling_y
                             54 	.globl _requires_scrolling_x
                             55 	.globl _player_position
                             56 	.globl _player_tile
                             57 	.globl _hammer_tile
                             58 	.globl _state
                             59 	.globl _main
                             60 	.globl _init
                             61 	.globl _init_music
                             62 	.globl _animate_player
                             63 	.globl _process_input
                             64 	.globl _process_player_position
                             65 	.globl _scroll_player_sprite
                             66 	.globl _requires_offset
                             67 	.globl _splash
                             68 	.globl _fadein
                             69 	.globl _fadeout
                             70 	.globl _play_sound
                             71 	.globl _generate_random_number
                             72 	.globl _cicled_delay
                             73 ;--------------------------------------------------------
                             74 ; Externals used
                             75 ;--------------------------------------------------------
                             76 	.globl _IE_REG
                             77 	.globl _SVBK_REG
                             78 	.globl _OCPD_REG
                             79 	.globl _OCPS_REG
                             80 	.globl _BCPD_REG
                             81 	.globl _BCPS_REG
                             82 	.globl _RP_REG
                             83 	.globl _HDMA5_REG
                             84 	.globl _HDMA4_REG
                             85 	.globl _HDMA3_REG
                             86 	.globl _HDMA2_REG
                             87 	.globl _HDMA1_REG
                             88 	.globl _VBK_REG
                             89 	.globl _KEY1_REG
                             90 	.globl _WX_REG
                             91 	.globl _WY_REG
                             92 	.globl _OBP1_REG
                             93 	.globl _OBP0_REG
                             94 	.globl _BGP_REG
                             95 	.globl _DMA_REG
                             96 	.globl _LYC_REG
                             97 	.globl _LY_REG
                             98 	.globl _SCX_REG
                             99 	.globl _SCY_REG
                            100 	.globl _STAT_REG
                            101 	.globl _LCDC_REG
                            102 	.globl _NR52_REG
                            103 	.globl _NR51_REG
                            104 	.globl _NR50_REG
                            105 	.globl _NR44_REG
                            106 	.globl _NR43_REG
                            107 	.globl _NR42_REG
                            108 	.globl _NR41_REG
                            109 	.globl _NR34_REG
                            110 	.globl _NR33_REG
                            111 	.globl _NR32_REG
                            112 	.globl _NR31_REG
                            113 	.globl _NR30_REG
                            114 	.globl _NR24_REG
                            115 	.globl _NR23_REG
                            116 	.globl _NR22_REG
                            117 	.globl _NR21_REG
                            118 	.globl _NR14_REG
                            119 	.globl _NR13_REG
                            120 	.globl _NR12_REG
                            121 	.globl _NR11_REG
                            122 	.globl _NR10_REG
                            123 	.globl _IF_REG
                            124 	.globl _TAC_REG
                            125 	.globl _TMA_REG
                            126 	.globl _TIMA_REG
                            127 	.globl _DIV_REG
                            128 	.globl _SC_REG
                            129 	.globl _SB_REG
                            130 	.globl _P1_REG
                            131 	.globl _song_Data
                            132 	.globl _SplashMap
                            133 	.globl _SplashTiles
                            134 	.globl _Player
                            135 	.globl _Bg
                            136 	.globl _Hammer
                            137 	.globl _BgTiles
                            138 	.globl __io_out
                            139 	.globl __io_in
                            140 	.globl __io_status
                            141 	.globl _sys_time
                            142 	.globl __cpu
                            143 ;--------------------------------------------------------
                            144 ; special function registers
                            145 ;--------------------------------------------------------
                            146 ;--------------------------------------------------------
                            147 ; special function bits 
                            148 ;--------------------------------------------------------
                            149 ;--------------------------------------------------------
                            150 ; internal ram data
                            151 ;--------------------------------------------------------
                            152 	.area _DATA
   0000                     153 _state::
   0000                     154 	.ds 1
   0001                     155 _offset_x::
   0001                     156 	.ds 1
   0002                     157 _can_process::
   0002                     158 	.ds 1
   0003                     159 _hammer_tile::
   0003                     160 	.ds 1
   0004                     161 _player_tile::
   0004                     162 	.ds 1
   0005                     163 _player_position::
   0005                     164 	.ds 1
   0006                     165 _requires_scrolling_x::
   0006                     166 	.ds 1
   0007                     167 _requires_scrolling_y::
   0007                     168 	.ds 1
   0008                     169 _has_reached::
   0008                     170 	.ds 1
   0009                     171 _frame_counter::
   0009                     172 	.ds 2
   000B                     173 _player_x_diff::
   000B                     174 	.ds 2
   000D                     175 _player_y_diff::
   000D                     176 	.ds 2
   000F                     177 _player_direction::
   000F                     178 	.ds 2
   0011                     179 _timer::
   0011                     180 	.ds 2
   0013                     181 _movements::
   0013                     182 	.ds 96
   0073                     183 _positions::
   0073                     184 	.ds 48
   00A3                     185 _player_x::
   00A3                     186 	.ds 2
   00A5                     187 _player_y::
   00A5                     188 	.ds 2
   00A7                     189 _player_new_x::
   00A7                     190 	.ds 2
   00A9                     191 _player_new_y::
   00A9                     192 	.ds 2
                            193 ;--------------------------------------------------------
                            194 ; overlayable items in internal ram 
                            195 ;--------------------------------------------------------
                            196 	.area _OVERLAY
                            197 ;--------------------------------------------------------
                            198 ; indirectly addressable internal ram data
                            199 ;--------------------------------------------------------
                            200 	.area _ISEG
                            201 ;--------------------------------------------------------
                            202 ; bit data
                            203 ;--------------------------------------------------------
                            204 	.area _BSEG
                            205 ;--------------------------------------------------------
                            206 ; external ram data
                            207 ;--------------------------------------------------------
                            208 	.area _XSEG
                            209 ;--------------------------------------------------------
                            210 ; global & static initialisations
                            211 ;--------------------------------------------------------
                            212 	.area _GSINIT
                            213 	.area _GSFINAL
                            214 	.area _GSINIT
                            215 ;	game/main.c 318
                            216 ; genAssign
                            217 ; AOP_HL for _state
   0000 21 00 00            218 	ld	hl,#_state + 0
   0003 36 00               219 	ld	(hl),#0x00
                            220 ;	game/main.c 318
                            221 ; genAssign
                            222 ; AOP_HL for _offset_x
   0005 21 01 00            223 	ld	hl,#_offset_x + 0
   0008 36 00               224 	ld	(hl),#0x00
                            225 ;	game/main.c 318
                            226 ; genAssign
                            227 ; AOP_HL for _can_process
   000A 21 02 00            228 	ld	hl,#_can_process + 0
   000D 36 00               229 	ld	(hl),#0x00
                            230 ;	game/main.c 318
                            231 ; genAssign
                            232 ; AOP_HL for _hammer_tile
   000F 21 03 00            233 	ld	hl,#_hammer_tile + 0
   0012 36 14               234 	ld	(hl),#0x14
                            235 ;	game/main.c 318
                            236 ; genAssign
                            237 ; AOP_HL for _player_tile
   0014 21 04 00            238 	ld	hl,#_player_tile + 0
   0017 36 00               239 	ld	(hl),#0x00
                            240 ;	game/main.c 318
                            241 ; genAssign
                            242 ; AOP_HL for _player_position
   0019 21 05 00            243 	ld	hl,#_player_position + 0
   001C 36 00               244 	ld	(hl),#0x00
                            245 ;	game/main.c 318
                            246 ; genAssign
                            247 ; AOP_HL for _requires_scrolling_x
   001E 21 06 00            248 	ld	hl,#_requires_scrolling_x + 0
   0021 36 00               249 	ld	(hl),#0x00
                            250 ;	game/main.c 318
                            251 ; genAssign
                            252 ; AOP_HL for _requires_scrolling_y
   0023 21 07 00            253 	ld	hl,#_requires_scrolling_y + 0
   0026 36 00               254 	ld	(hl),#0x00
                            255 ;	game/main.c 318
                            256 ; genAssign
                            257 ; AOP_HL for _has_reached
   0028 21 08 00            258 	ld	hl,#_has_reached + 0
   002B 36 01               259 	ld	(hl),#0x01
                            260 ;	game/main.c 318
                            261 ; genAssign
                            262 ; AOP_HL for _frame_counter
   002D 21 09 00            263 	ld	hl,#_frame_counter + 0
   0030 36 00               264 	ld	(hl),#0x00
   0032 23                  265 	inc	hl
   0033 36 00               266 	ld	(hl),#0x00
                            267 ;	game/main.c 318
                            268 ; genAssign
                            269 ; AOP_HL for _player_x_diff
   0035 21 0B 00            270 	ld	hl,#_player_x_diff + 0
   0038 36 00               271 	ld	(hl),#0x00
   003A 23                  272 	inc	hl
   003B 36 00               273 	ld	(hl),#0x00
                            274 ;	game/main.c 318
                            275 ; genAssign
                            276 ; AOP_HL for _player_y_diff
   003D 21 0D 00            277 	ld	hl,#_player_y_diff + 0
   0040 36 00               278 	ld	(hl),#0x00
   0042 23                  279 	inc	hl
   0043 36 00               280 	ld	(hl),#0x00
                            281 ;	game/main.c 318
                            282 ; genAssign
                            283 ; AOP_HL for _player_direction
   0045 21 0F 00            284 	ld	hl,#_player_direction + 0
   0048 36 02               285 	ld	(hl),#0x02
   004A 23                  286 	inc	hl
   004B 36 00               287 	ld	(hl),#0x00
                            288 ;	game/main.c 318
                            289 ; genAssign
                            290 ; AOP_HL for _timer
   004D 21 11 00            291 	ld	hl,#_timer + 0
   0050 36 00               292 	ld	(hl),#0x00
   0052 23                  293 	inc	hl
   0053 36 00               294 	ld	(hl),#0x00
                            295 ;	game/main.c 318
                            296 ; genAssign (pointer)
   0055 11 13 00            297 	ld	de,#_movements + 0
   0058 3E 00               298 	ld	a,#0x00
   005A 12                  299 	ld	(de),a
   005B 13                  300 	inc	de
   005C 3E 00               301 	ld	a,#0x00
   005E 12                  302 	ld	(de),a
                            303 ; genPlus
                            304 ; genPlusIncr
   005F 11 15 00            305 	ld	de,#_movements + 0 + 2
                            306 ; genAssign (pointer)
   0062 3E 00               307 	ld	a,#0x00
   0064 12                  308 	ld	(de),a
   0065 13                  309 	inc	de
   0066 3E 00               310 	ld	a,#0x00
   0068 12                  311 	ld	(de),a
                            312 ; genPlus
                            313 ; genPlusIncr
   0069 11 17 00            314 	ld	de,#_movements + 0 + 4
                            315 ; genAssign (pointer)
   006C 3E 01               316 	ld	a,#0x01
   006E 12                  317 	ld	(de),a
   006F 13                  318 	inc	de
   0070 3E 00               319 	ld	a,#0x00
   0072 12                  320 	ld	(de),a
                            321 ; genPlus
                            322 ; genPlusIncr
   0073 11 19 00            323 	ld	de,#_movements + 0 + 6
                            324 ; genAssign (pointer)
   0076 3E 00               325 	ld	a,#0x00
   0078 12                  326 	ld	(de),a
   0079 13                  327 	inc	de
   007A 3E 00               328 	ld	a,#0x00
   007C 12                  329 	ld	(de),a
                            330 ; genPlus
                            331 ; genPlusIncr
   007D 01 1B 00            332 	ld	bc,#_movements + 0 + 8
                            333 ; genAssign (pointer)
   0080 59                  334 	ld	e,c
   0081 50                  335 	ld	d,b
   0082 3E 01               336 	ld	a,#0x01
   0084 12                  337 	ld	(de),a
   0085 13                  338 	inc	de
   0086 3E 00               339 	ld	a,#0x00
   0088 12                  340 	ld	(de),a
                            341 ; genPlus
                            342 ; genPlusIncr
   0089 59                  343 	ld	e,c
   008A 50                  344 	ld	d,b
   008B 13                  345 	inc	de
   008C 13                  346 	inc	de
                            347 ; genAssign (pointer)
   008D 3E 01               348 	ld	a,#0x01
   008F 12                  349 	ld	(de),a
   0090 13                  350 	inc	de
   0091 3E 00               351 	ld	a,#0x00
   0093 12                  352 	ld	(de),a
                            353 ; genPlus
                            354 ; genPlusIncr
                            355 ;	genPlusIncr failed
   0094 79                  356 	ld	a,c
   0095 C6 04               357 	add	a,#0x04
   0097 5F                  358 	ld	e,a
   0098 78                  359 	ld	a,b
   0099 CE 00               360 	adc	a,#0x00
   009B 57                  361 	ld	d,a
                            362 ; genAssign (pointer)
   009C 3E 01               363 	ld	a,#0x01
   009E 12                  364 	ld	(de),a
   009F 13                  365 	inc	de
   00A0 3E 00               366 	ld	a,#0x00
   00A2 12                  367 	ld	(de),a
                            368 ; genPlus
                            369 ; genPlusIncr
                            370 ;	genPlusIncr failed
   00A3 79                  371 	ld	a,c
   00A4 C6 06               372 	add	a,#0x06
   00A6 5F                  373 	ld	e,a
   00A7 78                  374 	ld	a,b
   00A8 CE 00               375 	adc	a,#0x00
   00AA 57                  376 	ld	d,a
                            377 ; genAssign (pointer)
   00AB 3E 00               378 	ld	a,#0x00
   00AD 12                  379 	ld	(de),a
   00AE 13                  380 	inc	de
   00AF 3E 00               381 	ld	a,#0x00
   00B1 12                  382 	ld	(de),a
                            383 ; genPlus
                            384 ; genPlusIncr
   00B2 01 23 00            385 	ld	bc,#_movements + 0 + 16
                            386 ; genAssign (pointer)
   00B5 59                  387 	ld	e,c
   00B6 50                  388 	ld	d,b
   00B7 3E 01               389 	ld	a,#0x01
   00B9 12                  390 	ld	(de),a
   00BA 13                  391 	inc	de
   00BB 3E 00               392 	ld	a,#0x00
   00BD 12                  393 	ld	(de),a
                            394 ; genPlus
                            395 ; genPlusIncr
   00BE 59                  396 	ld	e,c
   00BF 50                  397 	ld	d,b
   00C0 13                  398 	inc	de
   00C1 13                  399 	inc	de
                            400 ; genAssign (pointer)
   00C2 3E 00               401 	ld	a,#0x00
   00C4 12                  402 	ld	(de),a
   00C5 13                  403 	inc	de
   00C6 3E 00               404 	ld	a,#0x00
   00C8 12                  405 	ld	(de),a
                            406 ; genPlus
                            407 ; genPlusIncr
                            408 ;	genPlusIncr failed
   00C9 79                  409 	ld	a,c
   00CA C6 04               410 	add	a,#0x04
   00CC 5F                  411 	ld	e,a
   00CD 78                  412 	ld	a,b
   00CE CE 00               413 	adc	a,#0x00
   00D0 57                  414 	ld	d,a
                            415 ; genAssign (pointer)
   00D1 3E 00               416 	ld	a,#0x00
   00D3 12                  417 	ld	(de),a
   00D4 13                  418 	inc	de
   00D5 3E 00               419 	ld	a,#0x00
   00D7 12                  420 	ld	(de),a
                            421 ; genPlus
                            422 ; genPlusIncr
                            423 ;	genPlusIncr failed
   00D8 79                  424 	ld	a,c
   00D9 C6 06               425 	add	a,#0x06
   00DB 5F                  426 	ld	e,a
   00DC 78                  427 	ld	a,b
   00DD CE 00               428 	adc	a,#0x00
   00DF 57                  429 	ld	d,a
                            430 ; genAssign (pointer)
   00E0 3E 00               431 	ld	a,#0x00
   00E2 12                  432 	ld	(de),a
   00E3 13                  433 	inc	de
   00E4 3E 00               434 	ld	a,#0x00
   00E6 12                  435 	ld	(de),a
                            436 ; genPlus
                            437 ; genPlusIncr
   00E7 01 2B 00            438 	ld	bc,#_movements + 0 + 24
                            439 ; genAssign (pointer)
   00EA 59                  440 	ld	e,c
   00EB 50                  441 	ld	d,b
   00EC 3E 00               442 	ld	a,#0x00
   00EE 12                  443 	ld	(de),a
   00EF 13                  444 	inc	de
   00F0 3E 00               445 	ld	a,#0x00
   00F2 12                  446 	ld	(de),a
                            447 ; genPlus
                            448 ; genPlusIncr
   00F3 59                  449 	ld	e,c
   00F4 50                  450 	ld	d,b
   00F5 13                  451 	inc	de
   00F6 13                  452 	inc	de
                            453 ; genAssign (pointer)
   00F7 3E 00               454 	ld	a,#0x00
   00F9 12                  455 	ld	(de),a
   00FA 13                  456 	inc	de
   00FB 3E 00               457 	ld	a,#0x00
   00FD 12                  458 	ld	(de),a
                            459 ; genPlus
                            460 ; genPlusIncr
                            461 ;	genPlusIncr failed
   00FE 79                  462 	ld	a,c
   00FF C6 04               463 	add	a,#0x04
   0101 5F                  464 	ld	e,a
   0102 78                  465 	ld	a,b
   0103 CE 00               466 	adc	a,#0x00
   0105 57                  467 	ld	d,a
                            468 ; genAssign (pointer)
   0106 3E 01               469 	ld	a,#0x01
   0108 12                  470 	ld	(de),a
   0109 13                  471 	inc	de
   010A 3E 00               472 	ld	a,#0x00
   010C 12                  473 	ld	(de),a
                            474 ; genPlus
                            475 ; genPlusIncr
                            476 ;	genPlusIncr failed
   010D 79                  477 	ld	a,c
   010E C6 06               478 	add	a,#0x06
   0110 5F                  479 	ld	e,a
   0111 78                  480 	ld	a,b
   0112 CE 00               481 	adc	a,#0x00
   0114 57                  482 	ld	d,a
                            483 ; genAssign (pointer)
   0115 3E 00               484 	ld	a,#0x00
   0117 12                  485 	ld	(de),a
   0118 13                  486 	inc	de
   0119 3E 00               487 	ld	a,#0x00
   011B 12                  488 	ld	(de),a
                            489 ; genPlus
                            490 ; genPlusIncr
   011C 01 33 00            491 	ld	bc,#_movements + 0 + 32
                            492 ; genAssign (pointer)
   011F 59                  493 	ld	e,c
   0120 50                  494 	ld	d,b
   0121 3E 01               495 	ld	a,#0x01
   0123 12                  496 	ld	(de),a
   0124 13                  497 	inc	de
   0125 3E 00               498 	ld	a,#0x00
   0127 12                  499 	ld	(de),a
                            500 ; genPlus
                            501 ; genPlusIncr
   0128 59                  502 	ld	e,c
   0129 50                  503 	ld	d,b
   012A 13                  504 	inc	de
   012B 13                  505 	inc	de
                            506 ; genAssign (pointer)
   012C 3E 00               507 	ld	a,#0x00
   012E 12                  508 	ld	(de),a
   012F 13                  509 	inc	de
   0130 3E 00               510 	ld	a,#0x00
   0132 12                  511 	ld	(de),a
                            512 ; genPlus
                            513 ; genPlusIncr
                            514 ;	genPlusIncr failed
   0133 79                  515 	ld	a,c
   0134 C6 04               516 	add	a,#0x04
   0136 5F                  517 	ld	e,a
   0137 78                  518 	ld	a,b
   0138 CE 00               519 	adc	a,#0x00
   013A 57                  520 	ld	d,a
                            521 ; genAssign (pointer)
   013B 3E 01               522 	ld	a,#0x01
   013D 12                  523 	ld	(de),a
   013E 13                  524 	inc	de
   013F 3E 00               525 	ld	a,#0x00
   0141 12                  526 	ld	(de),a
                            527 ; genPlus
                            528 ; genPlusIncr
                            529 ;	genPlusIncr failed
   0142 79                  530 	ld	a,c
   0143 C6 06               531 	add	a,#0x06
   0145 5F                  532 	ld	e,a
   0146 78                  533 	ld	a,b
   0147 CE 00               534 	adc	a,#0x00
   0149 57                  535 	ld	d,a
                            536 ; genAssign (pointer)
   014A 3E 01               537 	ld	a,#0x01
   014C 12                  538 	ld	(de),a
   014D 13                  539 	inc	de
   014E 3E 00               540 	ld	a,#0x00
   0150 12                  541 	ld	(de),a
                            542 ; genPlus
                            543 ; genPlusIncr
   0151 01 3B 00            544 	ld	bc,#_movements + 0 + 40
                            545 ; genAssign (pointer)
   0154 59                  546 	ld	e,c
   0155 50                  547 	ld	d,b
   0156 3E 01               548 	ld	a,#0x01
   0158 12                  549 	ld	(de),a
   0159 13                  550 	inc	de
   015A 3E 00               551 	ld	a,#0x00
   015C 12                  552 	ld	(de),a
                            553 ; genPlus
                            554 ; genPlusIncr
   015D 59                  555 	ld	e,c
   015E 50                  556 	ld	d,b
   015F 13                  557 	inc	de
   0160 13                  558 	inc	de
                            559 ; genAssign (pointer)
   0161 3E 01               560 	ld	a,#0x01
   0163 12                  561 	ld	(de),a
   0164 13                  562 	inc	de
   0165 3E 00               563 	ld	a,#0x00
   0167 12                  564 	ld	(de),a
                            565 ; genPlus
                            566 ; genPlusIncr
                            567 ;	genPlusIncr failed
   0168 79                  568 	ld	a,c
   0169 C6 04               569 	add	a,#0x04
   016B 5F                  570 	ld	e,a
   016C 78                  571 	ld	a,b
   016D CE 00               572 	adc	a,#0x00
   016F 57                  573 	ld	d,a
                            574 ; genAssign (pointer)
   0170 3E 00               575 	ld	a,#0x00
   0172 12                  576 	ld	(de),a
   0173 13                  577 	inc	de
   0174 3E 00               578 	ld	a,#0x00
   0176 12                  579 	ld	(de),a
                            580 ; genPlus
                            581 ; genPlusIncr
                            582 ;	genPlusIncr failed
   0177 79                  583 	ld	a,c
   0178 C6 06               584 	add	a,#0x06
   017A 5F                  585 	ld	e,a
   017B 78                  586 	ld	a,b
   017C CE 00               587 	adc	a,#0x00
   017E 57                  588 	ld	d,a
                            589 ; genAssign (pointer)
   017F 3E 00               590 	ld	a,#0x00
   0181 12                  591 	ld	(de),a
   0182 13                  592 	inc	de
   0183 3E 00               593 	ld	a,#0x00
   0185 12                  594 	ld	(de),a
                            595 ; genPlus
                            596 ; genPlusIncr
   0186 01 43 00            597 	ld	bc,#_movements + 0 + 48
                            598 ; genAssign (pointer)
   0189 59                  599 	ld	e,c
   018A 50                  600 	ld	d,b
   018B 3E 00               601 	ld	a,#0x00
   018D 12                  602 	ld	(de),a
   018E 13                  603 	inc	de
   018F 3E 00               604 	ld	a,#0x00
   0191 12                  605 	ld	(de),a
                            606 ; genPlus
                            607 ; genPlusIncr
   0192 59                  608 	ld	e,c
   0193 50                  609 	ld	d,b
   0194 13                  610 	inc	de
   0195 13                  611 	inc	de
                            612 ; genAssign (pointer)
   0196 3E 00               613 	ld	a,#0x00
   0198 12                  614 	ld	(de),a
   0199 13                  615 	inc	de
   019A 3E 00               616 	ld	a,#0x00
   019C 12                  617 	ld	(de),a
                            618 ; genPlus
                            619 ; genPlusIncr
                            620 ;	genPlusIncr failed
   019D 79                  621 	ld	a,c
   019E C6 04               622 	add	a,#0x04
   01A0 5F                  623 	ld	e,a
   01A1 78                  624 	ld	a,b
   01A2 CE 00               625 	adc	a,#0x00
   01A4 57                  626 	ld	d,a
                            627 ; genAssign (pointer)
   01A5 3E 00               628 	ld	a,#0x00
   01A7 12                  629 	ld	(de),a
   01A8 13                  630 	inc	de
   01A9 3E 00               631 	ld	a,#0x00
   01AB 12                  632 	ld	(de),a
                            633 ; genPlus
                            634 ; genPlusIncr
                            635 ;	genPlusIncr failed
   01AC 79                  636 	ld	a,c
   01AD C6 06               637 	add	a,#0x06
   01AF 5F                  638 	ld	e,a
   01B0 78                  639 	ld	a,b
   01B1 CE 00               640 	adc	a,#0x00
   01B3 57                  641 	ld	d,a
                            642 ; genAssign (pointer)
   01B4 3E 01               643 	ld	a,#0x01
   01B6 12                  644 	ld	(de),a
   01B7 13                  645 	inc	de
   01B8 3E 00               646 	ld	a,#0x00
   01BA 12                  647 	ld	(de),a
                            648 ; genPlus
                            649 ; genPlusIncr
   01BB 01 4B 00            650 	ld	bc,#_movements + 0 + 56
                            651 ; genAssign (pointer)
   01BE 59                  652 	ld	e,c
   01BF 50                  653 	ld	d,b
   01C0 3E 00               654 	ld	a,#0x00
   01C2 12                  655 	ld	(de),a
   01C3 13                  656 	inc	de
   01C4 3E 00               657 	ld	a,#0x00
   01C6 12                  658 	ld	(de),a
                            659 ; genPlus
                            660 ; genPlusIncr
   01C7 59                  661 	ld	e,c
   01C8 50                  662 	ld	d,b
   01C9 13                  663 	inc	de
   01CA 13                  664 	inc	de
                            665 ; genAssign (pointer)
   01CB 3E 01               666 	ld	a,#0x01
   01CD 12                  667 	ld	(de),a
   01CE 13                  668 	inc	de
   01CF 3E 00               669 	ld	a,#0x00
   01D1 12                  670 	ld	(de),a
                            671 ; genPlus
                            672 ; genPlusIncr
                            673 ;	genPlusIncr failed
   01D2 79                  674 	ld	a,c
   01D3 C6 04               675 	add	a,#0x04
   01D5 5F                  676 	ld	e,a
   01D6 78                  677 	ld	a,b
   01D7 CE 00               678 	adc	a,#0x00
   01D9 57                  679 	ld	d,a
                            680 ; genAssign (pointer)
   01DA 3E 01               681 	ld	a,#0x01
   01DC 12                  682 	ld	(de),a
   01DD 13                  683 	inc	de
   01DE 3E 00               684 	ld	a,#0x00
   01E0 12                  685 	ld	(de),a
                            686 ; genPlus
                            687 ; genPlusIncr
                            688 ;	genPlusIncr failed
   01E1 79                  689 	ld	a,c
   01E2 C6 06               690 	add	a,#0x06
   01E4 5F                  691 	ld	e,a
   01E5 78                  692 	ld	a,b
   01E6 CE 00               693 	adc	a,#0x00
   01E8 57                  694 	ld	d,a
                            695 ; genAssign (pointer)
   01E9 3E 00               696 	ld	a,#0x00
   01EB 12                  697 	ld	(de),a
   01EC 13                  698 	inc	de
   01ED 3E 00               699 	ld	a,#0x00
   01EF 12                  700 	ld	(de),a
                            701 ; genPlus
                            702 ; genPlusIncr
   01F0 01 53 00            703 	ld	bc,#_movements + 0 + 64
                            704 ; genAssign (pointer)
   01F3 59                  705 	ld	e,c
   01F4 50                  706 	ld	d,b
   01F5 3E 01               707 	ld	a,#0x01
   01F7 12                  708 	ld	(de),a
   01F8 13                  709 	inc	de
   01F9 3E 00               710 	ld	a,#0x00
   01FB 12                  711 	ld	(de),a
                            712 ; genPlus
                            713 ; genPlusIncr
   01FC 59                  714 	ld	e,c
   01FD 50                  715 	ld	d,b
   01FE 13                  716 	inc	de
   01FF 13                  717 	inc	de
                            718 ; genAssign (pointer)
   0200 3E 00               719 	ld	a,#0x00
   0202 12                  720 	ld	(de),a
   0203 13                  721 	inc	de
   0204 3E 00               722 	ld	a,#0x00
   0206 12                  723 	ld	(de),a
                            724 ; genPlus
                            725 ; genPlusIncr
                            726 ;	genPlusIncr failed
   0207 79                  727 	ld	a,c
   0208 C6 04               728 	add	a,#0x04
   020A 5F                  729 	ld	e,a
   020B 78                  730 	ld	a,b
   020C CE 00               731 	adc	a,#0x00
   020E 57                  732 	ld	d,a
                            733 ; genAssign (pointer)
   020F 3E 00               734 	ld	a,#0x00
   0211 12                  735 	ld	(de),a
   0212 13                  736 	inc	de
   0213 3E 00               737 	ld	a,#0x00
   0215 12                  738 	ld	(de),a
                            739 ; genPlus
                            740 ; genPlusIncr
                            741 ;	genPlusIncr failed
   0216 79                  742 	ld	a,c
   0217 C6 06               743 	add	a,#0x06
   0219 5F                  744 	ld	e,a
   021A 78                  745 	ld	a,b
   021B CE 00               746 	adc	a,#0x00
   021D 57                  747 	ld	d,a
                            748 ; genAssign (pointer)
   021E 3E 01               749 	ld	a,#0x01
   0220 12                  750 	ld	(de),a
   0221 13                  751 	inc	de
   0222 3E 00               752 	ld	a,#0x00
   0224 12                  753 	ld	(de),a
                            754 ; genPlus
                            755 ; genPlusIncr
   0225 01 5B 00            756 	ld	bc,#_movements + 0 + 72
                            757 ; genAssign (pointer)
   0228 59                  758 	ld	e,c
   0229 50                  759 	ld	d,b
   022A 3E 00               760 	ld	a,#0x00
   022C 12                  761 	ld	(de),a
   022D 13                  762 	inc	de
   022E 3E 00               763 	ld	a,#0x00
   0230 12                  764 	ld	(de),a
                            765 ; genPlus
                            766 ; genPlusIncr
   0231 59                  767 	ld	e,c
   0232 50                  768 	ld	d,b
   0233 13                  769 	inc	de
   0234 13                  770 	inc	de
                            771 ; genAssign (pointer)
   0235 3E 00               772 	ld	a,#0x00
   0237 12                  773 	ld	(de),a
   0238 13                  774 	inc	de
   0239 3E 00               775 	ld	a,#0x00
   023B 12                  776 	ld	(de),a
                            777 ; genPlus
                            778 ; genPlusIncr
                            779 ;	genPlusIncr failed
   023C 79                  780 	ld	a,c
   023D C6 04               781 	add	a,#0x04
   023F 5F                  782 	ld	e,a
   0240 78                  783 	ld	a,b
   0241 CE 00               784 	adc	a,#0x00
   0243 57                  785 	ld	d,a
                            786 ; genAssign (pointer)
   0244 3E 01               787 	ld	a,#0x01
   0246 12                  788 	ld	(de),a
   0247 13                  789 	inc	de
   0248 3E 00               790 	ld	a,#0x00
   024A 12                  791 	ld	(de),a
                            792 ; genPlus
                            793 ; genPlusIncr
                            794 ;	genPlusIncr failed
   024B 79                  795 	ld	a,c
   024C C6 06               796 	add	a,#0x06
   024E 5F                  797 	ld	e,a
   024F 78                  798 	ld	a,b
   0250 CE 00               799 	adc	a,#0x00
   0252 57                  800 	ld	d,a
                            801 ; genAssign (pointer)
   0253 3E 01               802 	ld	a,#0x01
   0255 12                  803 	ld	(de),a
   0256 13                  804 	inc	de
   0257 3E 00               805 	ld	a,#0x00
   0259 12                  806 	ld	(de),a
                            807 ; genPlus
                            808 ; genPlusIncr
   025A 01 63 00            809 	ld	bc,#_movements + 0 + 80
                            810 ; genAssign (pointer)
   025D 59                  811 	ld	e,c
   025E 50                  812 	ld	d,b
   025F 3E 01               813 	ld	a,#0x01
   0261 12                  814 	ld	(de),a
   0262 13                  815 	inc	de
   0263 3E 00               816 	ld	a,#0x00
   0265 12                  817 	ld	(de),a
                            818 ; genPlus
                            819 ; genPlusIncr
   0266 59                  820 	ld	e,c
   0267 50                  821 	ld	d,b
   0268 13                  822 	inc	de
   0269 13                  823 	inc	de
                            824 ; genAssign (pointer)
   026A 3E 00               825 	ld	a,#0x00
   026C 12                  826 	ld	(de),a
   026D 13                  827 	inc	de
   026E 3E 00               828 	ld	a,#0x00
   0270 12                  829 	ld	(de),a
                            830 ; genPlus
                            831 ; genPlusIncr
                            832 ;	genPlusIncr failed
   0271 79                  833 	ld	a,c
   0272 C6 04               834 	add	a,#0x04
   0274 5F                  835 	ld	e,a
   0275 78                  836 	ld	a,b
   0276 CE 00               837 	adc	a,#0x00
   0278 57                  838 	ld	d,a
                            839 ; genAssign (pointer)
   0279 3E 01               840 	ld	a,#0x01
   027B 12                  841 	ld	(de),a
   027C 13                  842 	inc	de
   027D 3E 00               843 	ld	a,#0x00
   027F 12                  844 	ld	(de),a
                            845 ; genPlus
                            846 ; genPlusIncr
                            847 ;	genPlusIncr failed
   0280 79                  848 	ld	a,c
   0281 C6 06               849 	add	a,#0x06
   0283 5F                  850 	ld	e,a
   0284 78                  851 	ld	a,b
   0285 CE 00               852 	adc	a,#0x00
   0287 57                  853 	ld	d,a
                            854 ; genAssign (pointer)
   0288 3E 01               855 	ld	a,#0x01
   028A 12                  856 	ld	(de),a
   028B 13                  857 	inc	de
   028C 3E 00               858 	ld	a,#0x00
   028E 12                  859 	ld	(de),a
                            860 ; genPlus
                            861 ; genPlusIncr
   028F 01 6B 00            862 	ld	bc,#_movements + 0 + 88
                            863 ; genAssign (pointer)
   0292 59                  864 	ld	e,c
   0293 50                  865 	ld	d,b
   0294 3E 01               866 	ld	a,#0x01
   0296 12                  867 	ld	(de),a
   0297 13                  868 	inc	de
   0298 3E 00               869 	ld	a,#0x00
   029A 12                  870 	ld	(de),a
                            871 ; genPlus
                            872 ; genPlusIncr
   029B 59                  873 	ld	e,c
   029C 50                  874 	ld	d,b
   029D 13                  875 	inc	de
   029E 13                  876 	inc	de
                            877 ; genAssign (pointer)
   029F 3E 00               878 	ld	a,#0x00
   02A1 12                  879 	ld	(de),a
   02A2 13                  880 	inc	de
   02A3 3E 00               881 	ld	a,#0x00
   02A5 12                  882 	ld	(de),a
                            883 ; genPlus
                            884 ; genPlusIncr
                            885 ;	genPlusIncr failed
   02A6 79                  886 	ld	a,c
   02A7 C6 04               887 	add	a,#0x04
   02A9 5F                  888 	ld	e,a
   02AA 78                  889 	ld	a,b
   02AB CE 00               890 	adc	a,#0x00
   02AD 57                  891 	ld	d,a
                            892 ; genAssign (pointer)
   02AE 3E 00               893 	ld	a,#0x00
   02B0 12                  894 	ld	(de),a
   02B1 13                  895 	inc	de
   02B2 3E 00               896 	ld	a,#0x00
   02B4 12                  897 	ld	(de),a
                            898 ; genPlus
                            899 ; genPlusIncr
                            900 ;	genPlusIncr failed
   02B5 79                  901 	ld	a,c
   02B6 C6 06               902 	add	a,#0x06
   02B8 5F                  903 	ld	e,a
   02B9 78                  904 	ld	a,b
   02BA CE 00               905 	adc	a,#0x00
   02BC 57                  906 	ld	d,a
                            907 ; genAssign (pointer)
   02BD 3E 01               908 	ld	a,#0x01
   02BF 12                  909 	ld	(de),a
   02C0 13                  910 	inc	de
   02C1 3E 00               911 	ld	a,#0x00
   02C3 12                  912 	ld	(de),a
                            913 ;	game/main.c 318
                            914 ; genAssign (pointer)
   02C4 11 73 00            915 	ld	de,#_positions + 0
   02C7 3E 14               916 	ld	a,#0x14
   02C9 12                  917 	ld	(de),a
   02CA 13                  918 	inc	de
   02CB 3E 00               919 	ld	a,#0x00
   02CD 12                  920 	ld	(de),a
                            921 ; genPlus
                            922 ; genPlusIncr
   02CE 11 75 00            923 	ld	de,#_positions + 0 + 2
                            924 ; genAssign (pointer)
   02D1 3E 8D               925 	ld	a,#0x8D
   02D3 12                  926 	ld	(de),a
   02D4 13                  927 	inc	de
   02D5 3E 00               928 	ld	a,#0x00
   02D7 12                  929 	ld	(de),a
                            930 ; genPlus
                            931 ; genPlusIncr
   02D8 01 77 00            932 	ld	bc,#_positions + 0 + 4
                            933 ; genAssign (pointer)
   02DB 59                  934 	ld	e,c
   02DC 50                  935 	ld	d,b
   02DD 3E 46               936 	ld	a,#0x46
   02DF 12                  937 	ld	(de),a
   02E0 13                  938 	inc	de
   02E1 3E 00               939 	ld	a,#0x00
   02E3 12                  940 	ld	(de),a
                            941 ; genPlus
                            942 ; genPlusIncr
   02E4 59                  943 	ld	e,c
   02E5 50                  944 	ld	d,b
   02E6 13                  945 	inc	de
   02E7 13                  946 	inc	de
                            947 ; genAssign (pointer)
   02E8 3E 8D               948 	ld	a,#0x8D
   02EA 12                  949 	ld	(de),a
   02EB 13                  950 	inc	de
   02EC 3E 00               951 	ld	a,#0x00
   02EE 12                  952 	ld	(de),a
                            953 ; genPlus
                            954 ; genPlusIncr
   02EF 01 7B 00            955 	ld	bc,#_positions + 0 + 8
                            956 ; genAssign (pointer)
   02F2 59                  957 	ld	e,c
   02F3 50                  958 	ld	d,b
   02F4 3E 8C               959 	ld	a,#0x8C
   02F6 12                  960 	ld	(de),a
   02F7 13                  961 	inc	de
   02F8 3E 00               962 	ld	a,#0x00
   02FA 12                  963 	ld	(de),a
                            964 ; genPlus
                            965 ; genPlusIncr
   02FB 59                  966 	ld	e,c
   02FC 50                  967 	ld	d,b
   02FD 13                  968 	inc	de
   02FE 13                  969 	inc	de
                            970 ; genAssign (pointer)
   02FF 3E 8D               971 	ld	a,#0x8D
   0301 12                  972 	ld	(de),a
   0302 13                  973 	inc	de
   0303 3E 00               974 	ld	a,#0x00
   0305 12                  975 	ld	(de),a
                            976 ; genPlus
                            977 ; genPlusIncr
   0306 01 7F 00            978 	ld	bc,#_positions + 0 + 12
                            979 ; genAssign (pointer)
   0309 59                  980 	ld	e,c
   030A 50                  981 	ld	d,b
   030B 3E 14               982 	ld	a,#0x14
   030D 12                  983 	ld	(de),a
   030E 13                  984 	inc	de
   030F 3E 00               985 	ld	a,#0x00
   0311 12                  986 	ld	(de),a
                            987 ; genPlus
                            988 ; genPlusIncr
   0312 59                  989 	ld	e,c
   0313 50                  990 	ld	d,b
   0314 13                  991 	inc	de
   0315 13                  992 	inc	de
                            993 ; genAssign (pointer)
   0316 3E 69               994 	ld	a,#0x69
   0318 12                  995 	ld	(de),a
   0319 13                  996 	inc	de
   031A 3E 00               997 	ld	a,#0x00
   031C 12                  998 	ld	(de),a
                            999 ; genPlus
                           1000 ; genPlusIncr
   031D 01 83 00           1001 	ld	bc,#_positions + 0 + 16
                           1002 ; genAssign (pointer)
   0320 59                 1003 	ld	e,c
   0321 50                 1004 	ld	d,b
   0322 3E 46              1005 	ld	a,#0x46
   0324 12                 1006 	ld	(de),a
   0325 13                 1007 	inc	de
   0326 3E 00              1008 	ld	a,#0x00
   0328 12                 1009 	ld	(de),a
                           1010 ; genPlus
                           1011 ; genPlusIncr
   0329 59                 1012 	ld	e,c
   032A 50                 1013 	ld	d,b
   032B 13                 1014 	inc	de
   032C 13                 1015 	inc	de
                           1016 ; genAssign (pointer)
   032D 3E 69              1017 	ld	a,#0x69
   032F 12                 1018 	ld	(de),a
   0330 13                 1019 	inc	de
   0331 3E 00              1020 	ld	a,#0x00
   0333 12                 1021 	ld	(de),a
                           1022 ; genPlus
                           1023 ; genPlusIncr
   0334 01 87 00           1024 	ld	bc,#_positions + 0 + 20
                           1025 ; genAssign (pointer)
   0337 59                 1026 	ld	e,c
   0338 50                 1027 	ld	d,b
   0339 3E 8C              1028 	ld	a,#0x8C
   033B 12                 1029 	ld	(de),a
   033C 13                 1030 	inc	de
   033D 3E 00              1031 	ld	a,#0x00
   033F 12                 1032 	ld	(de),a
                           1033 ; genPlus
                           1034 ; genPlusIncr
   0340 59                 1035 	ld	e,c
   0341 50                 1036 	ld	d,b
   0342 13                 1037 	inc	de
   0343 13                 1038 	inc	de
                           1039 ; genAssign (pointer)
   0344 3E 69              1040 	ld	a,#0x69
   0346 12                 1041 	ld	(de),a
   0347 13                 1042 	inc	de
   0348 3E 00              1043 	ld	a,#0x00
   034A 12                 1044 	ld	(de),a
                           1045 ; genPlus
                           1046 ; genPlusIncr
   034B 01 8B 00           1047 	ld	bc,#_positions + 0 + 24
                           1048 ; genAssign (pointer)
   034E 59                 1049 	ld	e,c
   034F 50                 1050 	ld	d,b
   0350 3E 14              1051 	ld	a,#0x14
   0352 12                 1052 	ld	(de),a
   0353 13                 1053 	inc	de
   0354 3E 00              1054 	ld	a,#0x00
   0356 12                 1055 	ld	(de),a
                           1056 ; genPlus
                           1057 ; genPlusIncr
   0357 59                 1058 	ld	e,c
   0358 50                 1059 	ld	d,b
   0359 13                 1060 	inc	de
   035A 13                 1061 	inc	de
                           1062 ; genAssign (pointer)
   035B 3E 41              1063 	ld	a,#0x41
   035D 12                 1064 	ld	(de),a
   035E 13                 1065 	inc	de
   035F 3E 00              1066 	ld	a,#0x00
   0361 12                 1067 	ld	(de),a
                           1068 ; genPlus
                           1069 ; genPlusIncr
   0362 01 8F 00           1070 	ld	bc,#_positions + 0 + 28
                           1071 ; genAssign (pointer)
   0365 59                 1072 	ld	e,c
   0366 50                 1073 	ld	d,b
   0367 3E 42              1074 	ld	a,#0x42
   0369 12                 1075 	ld	(de),a
   036A 13                 1076 	inc	de
   036B 3E 00              1077 	ld	a,#0x00
   036D 12                 1078 	ld	(de),a
                           1079 ; genPlus
                           1080 ; genPlusIncr
   036E 59                 1081 	ld	e,c
   036F 50                 1082 	ld	d,b
   0370 13                 1083 	inc	de
   0371 13                 1084 	inc	de
                           1085 ; genAssign (pointer)
   0372 3E 41              1086 	ld	a,#0x41
   0374 12                 1087 	ld	(de),a
   0375 13                 1088 	inc	de
   0376 3E 00              1089 	ld	a,#0x00
   0378 12                 1090 	ld	(de),a
                           1091 ; genPlus
                           1092 ; genPlusIncr
   0379 01 93 00           1093 	ld	bc,#_positions + 0 + 32
                           1094 ; genAssign (pointer)
   037C 59                 1095 	ld	e,c
   037D 50                 1096 	ld	d,b
   037E 3E 8C              1097 	ld	a,#0x8C
   0380 12                 1098 	ld	(de),a
   0381 13                 1099 	inc	de
   0382 3E 00              1100 	ld	a,#0x00
   0384 12                 1101 	ld	(de),a
                           1102 ; genPlus
                           1103 ; genPlusIncr
   0385 59                 1104 	ld	e,c
   0386 50                 1105 	ld	d,b
   0387 13                 1106 	inc	de
   0388 13                 1107 	inc	de
                           1108 ; genAssign (pointer)
   0389 3E 41              1109 	ld	a,#0x41
   038B 12                 1110 	ld	(de),a
   038C 13                 1111 	inc	de
   038D 3E 00              1112 	ld	a,#0x00
   038F 12                 1113 	ld	(de),a
                           1114 ; genPlus
                           1115 ; genPlusIncr
   0390 01 97 00           1116 	ld	bc,#_positions + 0 + 36
                           1117 ; genAssign (pointer)
   0393 59                 1118 	ld	e,c
   0394 50                 1119 	ld	d,b
   0395 3E 14              1120 	ld	a,#0x14
   0397 12                 1121 	ld	(de),a
   0398 13                 1122 	inc	de
   0399 3E 00              1123 	ld	a,#0x00
   039B 12                 1124 	ld	(de),a
                           1125 ; genPlus
                           1126 ; genPlusIncr
   039C 59                 1127 	ld	e,c
   039D 50                 1128 	ld	d,b
   039E 13                 1129 	inc	de
   039F 13                 1130 	inc	de
                           1131 ; genAssign (pointer)
   03A0 3E 21              1132 	ld	a,#0x21
   03A2 12                 1133 	ld	(de),a
   03A3 13                 1134 	inc	de
   03A4 3E 00              1135 	ld	a,#0x00
   03A6 12                 1136 	ld	(de),a
                           1137 ; genPlus
                           1138 ; genPlusIncr
   03A7 01 9B 00           1139 	ld	bc,#_positions + 0 + 40
                           1140 ; genAssign (pointer)
   03AA 59                 1141 	ld	e,c
   03AB 50                 1142 	ld	d,b
   03AC 3E 42              1143 	ld	a,#0x42
   03AE 12                 1144 	ld	(de),a
   03AF 13                 1145 	inc	de
   03B0 3E 00              1146 	ld	a,#0x00
   03B2 12                 1147 	ld	(de),a
                           1148 ; genPlus
                           1149 ; genPlusIncr
   03B3 59                 1150 	ld	e,c
   03B4 50                 1151 	ld	d,b
   03B5 13                 1152 	inc	de
   03B6 13                 1153 	inc	de
                           1154 ; genAssign (pointer)
   03B7 3E 21              1155 	ld	a,#0x21
   03B9 12                 1156 	ld	(de),a
   03BA 13                 1157 	inc	de
   03BB 3E 00              1158 	ld	a,#0x00
   03BD 12                 1159 	ld	(de),a
                           1160 ; genPlus
                           1161 ; genPlusIncr
   03BE 01 9F 00           1162 	ld	bc,#_positions + 0 + 44
                           1163 ; genAssign (pointer)
   03C1 59                 1164 	ld	e,c
   03C2 50                 1165 	ld	d,b
   03C3 3E 8C              1166 	ld	a,#0x8C
   03C5 12                 1167 	ld	(de),a
   03C6 13                 1168 	inc	de
   03C7 3E 00              1169 	ld	a,#0x00
   03C9 12                 1170 	ld	(de),a
                           1171 ; genPlus
                           1172 ; genPlusIncr
   03CA 59                 1173 	ld	e,c
   03CB 50                 1174 	ld	d,b
   03CC 13                 1175 	inc	de
   03CD 13                 1176 	inc	de
                           1177 ; genAssign (pointer)
   03CE 3E 21              1178 	ld	a,#0x21
   03D0 12                 1179 	ld	(de),a
   03D1 13                 1180 	inc	de
   03D2 3E 00              1181 	ld	a,#0x00
   03D4 12                 1182 	ld	(de),a
                           1183 ;	game/main.c 57
                           1184 ; genPointerGet
                           1185 ; AOP_HL for _player_x
   03D5 11 73 00           1186 	ld	de,#_positions + 0
   03D8 1A                 1187 	ld	a,(de)
   03D9 21 A3 00           1188 	ld	hl,#_player_x + 0
   03DC 77                 1189 	ld	(hl),a
   03DD 13                 1190 	inc	de
   03DE 1A                 1191 	ld	a,(de)
   03DF 23                 1192 	inc	hl
   03E0 77                 1193 	ld	(hl),a
                           1194 ;	game/main.c 58
                           1195 ; genPlus
                           1196 ; genPlusIncr
   03E1 11 75 00           1197 	ld	de,#_positions + 0 + 2
                           1198 ; genPointerGet
                           1199 ; AOP_HL for _player_y
                           1200 ; Removed redundent load
                           1201 ; Removed redundent load
   03E4 1A                 1202 	ld	a,(de)
   03E5 21 A5 00           1203 	ld	hl,#_player_y + 0
   03E8 77                 1204 	ld	(hl),a
   03E9 13                 1205 	inc	de
   03EA 1A                 1206 	ld	a,(de)
   03EB 23                 1207 	inc	hl
   03EC 77                 1208 	ld	(hl),a
                           1209 ;	game/main.c 318
                           1210 ; genAssign
                           1211 ; AOP_HL for _player_x
                           1212 ; AOP_HL for _player_new_x
   03ED 21 A3 00           1213 	ld	hl,#_player_x + 0
   03F0 2A                 1214 	ld	a,(hl+)
   03F1 5E                 1215 	ld	e,(hl)
   03F2 21 A7 00           1216 	ld	hl,#_player_new_x + 0
   03F5 22                 1217 	ld	(hl+),a
   03F6 73                 1218 	ld	(hl),e
                           1219 ;	game/main.c 318
                           1220 ; genAssign
                           1221 ; AOP_HL for _player_y
                           1222 ; AOP_HL for _player_new_y
   03F7 21 A5 00           1223 	ld	hl,#_player_y + 0
   03FA 2A                 1224 	ld	a,(hl+)
   03FB 5E                 1225 	ld	e,(hl)
   03FC 21 A9 00           1226 	ld	hl,#_player_new_y + 0
   03FF 22                 1227 	ld	(hl+),a
   0400 73                 1228 	ld	(hl),e
                           1229 ;--------------------------------------------------------
                           1230 ; Home
                           1231 ;--------------------------------------------------------
                           1232 	.area _HOME
                           1233 	.area _CODE
                           1234 ;--------------------------------------------------------
                           1235 ; code
                           1236 ;--------------------------------------------------------
                           1237 	.area _CODE
                           1238 ;	game/global.c 12
                           1239 ; genLabel
                           1240 ; genFunction
                           1241 ;	---------------------------------
                           1242 ; Function cicled_delay
                           1243 ; ---------------------------------
   0000                    1244 ___cicled_delay_start:
   0000                    1245 _cicled_delay:
   0000 C5                 1246 	push	bc
                           1247 	
                           1248 ;	game/global.c 14
                           1249 ; genAssign
   0001 0E 00              1250 	ld	c,#0x00
                           1251 ; genLabel
   0003                    1252 00101$:
                           1253 ; genCmpLt
                           1254 ; AOP_STK for 
   0003 AF                 1255 	xor	a,a
   0004 79                 1256 	ld	a,c
   0005 F8 04              1257 	lda	hl,4(sp)
   0007 9E                 1258 	sbc	a,(hl) ; 2
   0008 D2 12 00           1259 	jp	nc,00105$
                           1260 ;	game/global.c 15
                           1261 ; genCall
   000B CD 00 00           1262 	call	_wait_vbl_done
                           1263 ;	game/global.c 14
                           1264 ; genPlus
                           1265 ; genPlusIncr
   000E 0C                 1266 	inc	c
                           1267 ; genGoto
   000F C3 03 00           1268 	jp	00101$
                           1269 ; genLabel
   0012                    1270 00105$:
                           1271 ; genEndFunction
                           1272 	
   0012 C1                 1273 	pop	bc
   0013 C9                 1274 	ret
   0014                    1275 ___cicled_delay_end:
                           1276 ;	game/global.c 19
                           1277 ; genLabel
                           1278 ; genFunction
                           1279 ;	---------------------------------
                           1280 ; Function generate_random_number
                           1281 ; ---------------------------------
   0014                    1282 ___generate_random_number_start:
   0014                    1283 _generate_random_number:
   0014 C5                 1284 	push	bc
                           1285 	
                           1286 ;	game/global.c 21
                           1287 ; genCall
   0015 CD 00 00           1288 	call	_rand
   0018 4B                 1289 	ld	c,e
                           1290 ; genPlus
                           1291 ; AOP_STK for 
                           1292 ; genPlusIncr
                           1293 ;	genPlusIncr failed
   0019 F8 04              1294 	lda	hl,4(sp)
   001B 7E                 1295 	ld	a,(hl)
   001C C6 01              1296 	add	a,#0x01
   001E 47                 1297 	ld	b,a
                           1298 ; genIpush
   001F 78                 1299 	ld	a,b
   0020 F5                 1300 	push	af
   0021 33                 1301 	inc	sp
                           1302 ; genIpush
   0022 79                 1303 	ld	a,c
   0023 F5                 1304 	push	af
   0024 33                 1305 	inc	sp
                           1306 ; genCall
   0025 CD 00 00           1307 	call	__modschar
   0028 4B                 1308 	ld	c,e
   0029 E8 02              1309 	lda	sp,2(sp)
                           1310 ;	game/global.c 22
                           1311 ; genRet
   002B 59                 1312 	ld	e,c
                           1313 ; genLabel
   002C                    1314 00101$:
                           1315 ; genEndFunction
                           1316 	
   002C C1                 1317 	pop	bc
   002D C9                 1318 	ret
   002E                    1319 ___generate_random_number_end:
                           1320 ;	game/global.c 26
                           1321 ; genLabel
                           1322 ; genFunction
                           1323 ;	---------------------------------
                           1324 ; Function play_sound
                           1325 ; ---------------------------------
   002E                    1326 ___play_sound_start:
   002E                    1327 _play_sound:
                           1328 	
                           1329 ;	game/global.c 27
                           1330 ; genCmpEq
                           1331 ; AOP_STK for 
   002E F8 02              1332 	lda	hl,2(sp)
   0030 7E                 1333 	ld	a,(hl)
   0031 B7                 1334 	or	a,a
   0032 C2 37 00           1335 	jp	nz,00106$
   0035 18 03              1336 	jr	00107$
   0037                    1337 00106$:
   0037 C3 5A 00           1338 	jp	00103$
   003A                    1339 00107$:
                           1340 ;	game/global.c 28
                           1341 ; genAssign
                           1342 ; AOP_SFR for _NR52_REG
   003A 3E 80              1343 	ld	a,#0x80
   003C E0 00              1344 	ldh	(_NR52_REG+0),a
                           1345 ;	game/global.c 29
                           1346 ; genAssign
                           1347 ; AOP_SFR for _NR51_REG
   003E 3E 11              1348 	ld	a,#0x11
   0040 E0 00              1349 	ldh	(_NR51_REG+0),a
                           1350 ;	game/global.c 30
                           1351 ; genAssign
                           1352 ; AOP_SFR for _NR50_REG
   0042 3E 77              1353 	ld	a,#0x77
   0044 E0 00              1354 	ldh	(_NR50_REG+0),a
                           1355 ;	game/global.c 32
                           1356 ; genAssign
                           1357 ; AOP_SFR for _NR10_REG
   0046 3E 1C              1358 	ld	a,#0x1C
   0048 E0 00              1359 	ldh	(_NR10_REG+0),a
                           1360 ;	game/global.c 33
                           1361 ; genAssign
                           1362 ; AOP_SFR for _NR11_REG
   004A 3E C6              1363 	ld	a,#0xC6
   004C E0 00              1364 	ldh	(_NR11_REG+0),a
                           1365 ;	game/global.c 34
                           1366 ; genAssign
                           1367 ; AOP_SFR for _NR12_REG
   004E 3E 73              1368 	ld	a,#0x73
   0050 E0 00              1369 	ldh	(_NR12_REG+0),a
                           1370 ;	game/global.c 35
                           1371 ; genAssign
                           1372 ; AOP_SFR for _NR13_REG
   0052 3E 00              1373 	ld	a,#0x00
   0054 E0 00              1374 	ldh	(_NR13_REG+0),a
                           1375 ;	game/global.c 36
                           1376 ; genAssign
                           1377 ; AOP_SFR for _NR14_REG
   0056 3E C3              1378 	ld	a,#0xC3
   0058 E0 00              1379 	ldh	(_NR14_REG+0),a
                           1380 ; genLabel
   005A                    1381 00103$:
                           1382 ; genEndFunction
                           1383 	
   005A C9                 1384 	ret
   005B                    1385 ___play_sound_end:
                           1386 ;	game/global.c 41
                           1387 ; genLabel
                           1388 ; genFunction
                           1389 ;	---------------------------------
                           1390 ; Function fadeout
                           1391 ; ---------------------------------
   005B                    1392 ___fadeout_start:
   005B                    1393 _fadeout:
   005B C5                 1394 	push	bc
                           1395 	
                           1396 ;	game/global.c 43
                           1397 ; genAssign
   005C 0E 00              1398 	ld	c,#0x00
                           1399 ; genLabel
   005E                    1400 00109$:
                           1401 ; genCmpLt
   005E 79                 1402 	ld	a,c
   005F FE 04              1403 	cp	#0x04
   0061 D2 BC 00           1404 	jp	nc,00113$
                           1405 ;	game/global.c 44
                           1406 ; genCmpEq
   0064 79                 1407 	ld	a,c
   0065 B7                 1408 	or	a,a
   0066 C2 6B 00           1409 	jp	nz,00121$
   0069 18 03              1410 	jr	00122$
   006B                    1411 00121$:
   006B C3 76 00           1412 	jp	00102$
   006E                    1413 00122$:
                           1414 ;	game/global.c 45
                           1415 ; genAssign
                           1416 ; AOP_SFR for _BGP_REG
   006E 3E E4              1417 	ld	a,#0xE4
   0070 E0 00              1418 	ldh	(_BGP_REG+0),a
                           1419 ;	game/global.c 46
                           1420 ; genAssign
                           1421 ; AOP_SFR for _OBP0_REG
   0072 3E E4              1422 	ld	a,#0xE4
   0074 E0 00              1423 	ldh	(_OBP0_REG+0),a
                           1424 ; genLabel
   0076                    1425 00102$:
                           1426 ;	game/global.c 48
                           1427 ; genCmpEq
   0076 79                 1428 	ld	a,c ; 2
   0077 FE 01              1429 	cp	a,#0x01
   0079 C2 7E 00           1430 	jp	nz,00123$
   007C 18 03              1431 	jr	00124$
   007E                    1432 00123$:
   007E C3 89 00           1433 	jp	00104$
   0081                    1434 00124$:
                           1435 ;	game/global.c 49
                           1436 ; genAssign
                           1437 ; AOP_SFR for _BGP_REG
   0081 3E 90              1438 	ld	a,#0x90
   0083 E0 00              1439 	ldh	(_BGP_REG+0),a
                           1440 ;	game/global.c 50
                           1441 ; genAssign
                           1442 ; AOP_SFR for _OBP0_REG
   0085 3E 90              1443 	ld	a,#0x90
   0087 E0 00              1444 	ldh	(_OBP0_REG+0),a
                           1445 ; genLabel
   0089                    1446 00104$:
                           1447 ;	game/global.c 52
                           1448 ; genCmpEq
   0089 79                 1449 	ld	a,c ; 2
   008A FE 02              1450 	cp	a,#0x02
   008C C2 91 00           1451 	jp	nz,00125$
   008F 18 03              1452 	jr	00126$
   0091                    1453 00125$:
   0091 C3 9C 00           1454 	jp	00106$
   0094                    1455 00126$:
                           1456 ;	game/global.c 53
                           1457 ; genAssign
                           1458 ; AOP_SFR for _BGP_REG
   0094 3E 80              1459 	ld	a,#0x80
   0096 E0 00              1460 	ldh	(_BGP_REG+0),a
                           1461 ;	game/global.c 54
                           1462 ; genAssign
                           1463 ; AOP_SFR for _OBP0_REG
   0098 3E 80              1464 	ld	a,#0x80
   009A E0 00              1465 	ldh	(_OBP0_REG+0),a
                           1466 ; genLabel
   009C                    1467 00106$:
                           1468 ;	game/global.c 56
                           1469 ; genCmpEq
   009C 79                 1470 	ld	a,c ; 2
   009D FE 03              1471 	cp	a,#0x03
   009F C2 A4 00           1472 	jp	nz,00127$
   00A2 18 03              1473 	jr	00128$
   00A4                    1474 00127$:
   00A4 C3 AF 00           1475 	jp	00108$
   00A7                    1476 00128$:
                           1477 ;	game/global.c 57
                           1478 ; genAssign
                           1479 ; AOP_SFR for _BGP_REG
   00A7 3E 00              1480 	ld	a,#0x00
   00A9 E0 00              1481 	ldh	(_BGP_REG+0),a
                           1482 ;	game/global.c 58
                           1483 ; genAssign
                           1484 ; AOP_SFR for _OBP0_REG
   00AB 3E 00              1485 	ld	a,#0x00
   00AD E0 00              1486 	ldh	(_OBP0_REG+0),a
                           1487 ; genLabel
   00AF                    1488 00108$:
                           1489 ;	game/global.c 60
                           1490 ; genIpush
   00AF 3E 02              1491 	ld	a,#0x02
   00B1 F5                 1492 	push	af
   00B2 33                 1493 	inc	sp
                           1494 ; genCall
   00B3 CD 00 00           1495 	call	_cicled_delay
   00B6 E8 01              1496 	lda	sp,1(sp)
                           1497 ;	game/global.c 43
                           1498 ; genPlus
                           1499 ; genPlusIncr
   00B8 0C                 1500 	inc	c
                           1501 ; genGoto
   00B9 C3 5E 00           1502 	jp	00109$
                           1503 ; genLabel
   00BC                    1504 00113$:
                           1505 ; genEndFunction
                           1506 	
   00BC C1                 1507 	pop	bc
   00BD C9                 1508 	ret
   00BE                    1509 ___fadeout_end:
                           1510 ;	game/global.c 64
                           1511 ; genLabel
                           1512 ; genFunction
                           1513 ;	---------------------------------
                           1514 ; Function fadein
                           1515 ; ---------------------------------
   00BE                    1516 ___fadein_start:
   00BE                    1517 _fadein:
   00BE C5                 1518 	push	bc
                           1519 	
                           1520 ;	game/global.c 66
                           1521 ; genAssign
   00BF 0E 00              1522 	ld	c,#0x00
                           1523 ; genLabel
   00C1                    1524 00109$:
                           1525 ; genCmpLt
   00C1 79                 1526 	ld	a,c
   00C2 FE 04              1527 	cp	#0x04
   00C4 D2 1F 01           1528 	jp	nc,00113$
                           1529 ;	game/global.c 67
                           1530 ; genCmpEq
   00C7 79                 1531 	ld	a,c
   00C8 B7                 1532 	or	a,a
   00C9 C2 CE 00           1533 	jp	nz,00121$
   00CC 18 03              1534 	jr	00122$
   00CE                    1535 00121$:
   00CE C3 D9 00           1536 	jp	00102$
   00D1                    1537 00122$:
                           1538 ;	game/global.c 68
                           1539 ; genAssign
                           1540 ; AOP_SFR for _OBP0_REG
   00D1 3E 00              1541 	ld	a,#0x00
   00D3 E0 00              1542 	ldh	(_OBP0_REG+0),a
                           1543 ;	game/global.c 69
                           1544 ; genAssign
                           1545 ; AOP_SFR for _BGP_REG
   00D5 3E 00              1546 	ld	a,#0x00
   00D7 E0 00              1547 	ldh	(_BGP_REG+0),a
                           1548 ; genLabel
   00D9                    1549 00102$:
                           1550 ;	game/global.c 71
                           1551 ; genCmpEq
   00D9 79                 1552 	ld	a,c ; 2
   00DA FE 01              1553 	cp	a,#0x01
   00DC C2 E1 00           1554 	jp	nz,00123$
   00DF 18 03              1555 	jr	00124$
   00E1                    1556 00123$:
   00E1 C3 EC 00           1557 	jp	00104$
   00E4                    1558 00124$:
                           1559 ;	game/global.c 72
                           1560 ; genAssign
                           1561 ; AOP_SFR for _OBP0_REG
   00E4 3E 80              1562 	ld	a,#0x80
   00E6 E0 00              1563 	ldh	(_OBP0_REG+0),a
                           1564 ;	game/global.c 73
                           1565 ; genAssign
                           1566 ; AOP_SFR for _BGP_REG
   00E8 3E 80              1567 	ld	a,#0x80
   00EA E0 00              1568 	ldh	(_BGP_REG+0),a
                           1569 ; genLabel
   00EC                    1570 00104$:
                           1571 ;	game/global.c 75
                           1572 ; genCmpEq
   00EC 79                 1573 	ld	a,c ; 2
   00ED FE 02              1574 	cp	a,#0x02
   00EF C2 F4 00           1575 	jp	nz,00125$
   00F2 18 03              1576 	jr	00126$
   00F4                    1577 00125$:
   00F4 C3 FF 00           1578 	jp	00106$
   00F7                    1579 00126$:
                           1580 ;	game/global.c 76
                           1581 ; genAssign
                           1582 ; AOP_SFR for _OBP0_REG
   00F7 3E 90              1583 	ld	a,#0x90
   00F9 E0 00              1584 	ldh	(_OBP0_REG+0),a
                           1585 ;	game/global.c 77
                           1586 ; genAssign
                           1587 ; AOP_SFR for _BGP_REG
   00FB 3E 90              1588 	ld	a,#0x90
   00FD E0 00              1589 	ldh	(_BGP_REG+0),a
                           1590 ; genLabel
   00FF                    1591 00106$:
                           1592 ;	game/global.c 79
                           1593 ; genCmpEq
   00FF 79                 1594 	ld	a,c ; 2
   0100 FE 03              1595 	cp	a,#0x03
   0102 C2 07 01           1596 	jp	nz,00127$
   0105 18 03              1597 	jr	00128$
   0107                    1598 00127$:
   0107 C3 12 01           1599 	jp	00108$
   010A                    1600 00128$:
                           1601 ;	game/global.c 80
                           1602 ; genAssign
                           1603 ; AOP_SFR for _OBP0_REG
   010A 3E E4              1604 	ld	a,#0xE4
   010C E0 00              1605 	ldh	(_OBP0_REG+0),a
                           1606 ;	game/global.c 81
                           1607 ; genAssign
                           1608 ; AOP_SFR for _BGP_REG
   010E 3E E4              1609 	ld	a,#0xE4
   0110 E0 00              1610 	ldh	(_BGP_REG+0),a
                           1611 ; genLabel
   0112                    1612 00108$:
                           1613 ;	game/global.c 83
                           1614 ; genIpush
   0112 3E 02              1615 	ld	a,#0x02
   0114 F5                 1616 	push	af
   0115 33                 1617 	inc	sp
                           1618 ; genCall
   0116 CD 00 00           1619 	call	_cicled_delay
   0119 E8 01              1620 	lda	sp,1(sp)
                           1621 ;	game/global.c 66
                           1622 ; genPlus
                           1623 ; genPlusIncr
   011B 0C                 1624 	inc	c
                           1625 ; genGoto
   011C C3 C1 00           1626 	jp	00109$
                           1627 ; genLabel
   011F                    1628 00113$:
                           1629 ; genEndFunction
                           1630 	
   011F C1                 1631 	pop	bc
   0120 C9                 1632 	ret
   0121                    1633 ___fadein_end:
                           1634 ;	game/main.c 63
                           1635 ; genLabel
                           1636 ; genFunction
                           1637 ;	---------------------------------
                           1638 ; Function splash
                           1639 ; ---------------------------------
   0121                    1640 ___splash_start:
   0121                    1641 _splash:
                           1642 	
                           1643 ;	game/main.c 64
                           1644 ; genOr
                           1645 ; AOP_SFR for _LCDC_REG
                           1646 ; Type res[4] = l[4]&r[1]
                           1647 ; Size res[1] = l[1]&r[1]
   0121 F0 00              1648 	ldh	a,(_LCDC_REG+0) ; x
   0123 F6 01              1649 	or	a,#0x01
   0125 E0 00              1650 	ldh	(_LCDC_REG+0),a
                           1651 ;	game/main.c 65
                           1652 ; genCall
   0127 CD 5B 00           1653 	call	_fadeout
                           1654 ;	game/main.c 66
                           1655 ; genAssign
   012A 11 00 20           1656 	ld	de,#0x2000
                           1657 ; genAssign (pointer)
   012D 3E 03              1658 	ld	a,#0x03
   012F 12                 1659 	ld	(de),a
                           1660 ;	game/main.c 67
                           1661 ; genIpush
   0130 21 00 00           1662 	ld	hl,#_SplashTiles + 0
   0133 E5                 1663 	push	hl
                           1664 ; genIpush
   0134 3E 85              1665 	ld	a,#0x85
   0136 F5                 1666 	push	af
   0137 33                 1667 	inc	sp
                           1668 ; genIpush
   0138 3E 01              1669 	ld	a,#0x01
   013A F5                 1670 	push	af
   013B 33                 1671 	inc	sp
                           1672 ; genCall
   013C CD 00 00           1673 	call	_set_bkg_data
   013F E8 04              1674 	lda	sp,4(sp)
                           1675 ;	game/main.c 68
                           1676 ; genIpush
   0141 21 00 00           1677 	ld	hl,#_SplashMap + 0
   0144 E5                 1678 	push	hl
                           1679 ; genIpush
   0145 3E 12              1680 	ld	a,#0x12
   0147 F5                 1681 	push	af
   0148 33                 1682 	inc	sp
                           1683 ; genIpush
   0149 3E 14              1684 	ld	a,#0x14
   014B F5                 1685 	push	af
   014C 33                 1686 	inc	sp
                           1687 ; genIpush
   014D 3E 00              1688 	ld	a,#0x00
   014F F5                 1689 	push	af
   0150 33                 1690 	inc	sp
                           1691 ; genIpush
   0151 3E 00              1692 	ld	a,#0x00
   0153 F5                 1693 	push	af
   0154 33                 1694 	inc	sp
                           1695 ; genCall
   0155 CD 00 00           1696 	call	_set_bkg_tiles
   0158 E8 06              1697 	lda	sp,6(sp)
                           1698 ;	game/main.c 69
                           1699 ; genCall
   015A CD BE 00           1700 	call	_fadein
                           1701 ;	game/main.c 70
                           1702 ; genIpush
   015D 3E 10              1703 	ld	a,#0x10
   015F F5                 1704 	push	af
   0160 33                 1705 	inc	sp
                           1706 ; genCall
   0161 CD 00 00           1707 	call	_waitpad
   0164 E8 01              1708 	lda	sp,1(sp)
                           1709 ;	game/main.c 71
                           1710 ; genCall
   0166 CD 5B 00           1711 	call	_fadeout
                           1712 ; genLabel
   0169                    1713 00101$:
                           1714 ; genEndFunction
                           1715 	
   0169 C9                 1716 	ret
   016A                    1717 ___splash_end:
                           1718 ;	game/main.c 74
                           1719 ; genLabel
                           1720 ; genFunction
                           1721 ;	---------------------------------
                           1722 ; Function requires_offset
                           1723 ; ---------------------------------
   016A                    1724 ___requires_offset_start:
   016A                    1725 _requires_offset:
   016A C5                 1726 	push	bc
                           1727 	
                           1728 ;	game/main.c 75
                           1729 ; genCmpEq
                           1730 ; AOP_HL for _player_direction
   016B 21 0F 00           1731 	ld	hl,#_player_direction + 0
   016E 2A                 1732 	ld	a,(hl+)
   016F B6                 1733 	or	a,(hl)
   0170 C2 77 01           1734 	jp	nz,00134$
   0173 3E 01              1735 	ld	a,#0x01
   0175 18 01              1736 	jr	00135$
   0177                    1737 00134$:
   0177 AF                 1738 	xor	a,a
   0178                    1739 00135$:
   0178 4F                 1740 	ld	c,a
                           1741 ; genIfx
                           1742 ; Removed redundent or a,a
   0179 AF                 1743 	xor	a,a
   017A B1                 1744 	or	a,c
   017B CA D3 01           1745 	jp	z,00102$
                           1746 ; genCmpEq
                           1747 ; AOP_HL for _player_position
   017E 21 05 00           1748 	ld	hl,#_player_position + 0
   0181 7E                 1749 	ld	a,(hl) ; 2
   0182 FE 01              1750 	cp	a,#0x01
                           1751 ; Rule 5
   0184 CA 95 01           1752 	jp	z,00101$
   0187                    1753 00136$:
                           1754 ; genCmpEq
                           1755 ; AOP_HL for _player_position
   0187 21 05 00           1756 	ld	hl,#_player_position + 0
   018A 7E                 1757 	ld	a,(hl) ; 2
   018B FE 04              1758 	cp	a,#0x04
   018D C2 92 01           1759 	jp	nz,00137$
   0190 18 03              1760 	jr	00138$
   0192                    1761 00137$:
   0192 C3 D3 01           1762 	jp	00102$
   0195                    1763 00138$:
                           1764 ; genLabel
   0195                    1765 00101$:
                           1766 ;	game/main.c 76
                           1767 ; genIpush
   0195 3E 00              1768 	ld	a,#0x00
   0197 F5                 1769 	push	af
   0198 33                 1770 	inc	sp
                           1771 ; genIpush
   0199 3E 04              1772 	ld	a,#0x04
   019B F5                 1773 	push	af
   019C 33                 1774 	inc	sp
                           1775 ; genIpush
   019D 3E 00              1776 	ld	a,#0x00
   019F F5                 1777 	push	af
   01A0 33                 1778 	inc	sp
                           1779 ; genCall
   01A1 CD 00 00           1780 	call	_scroll_sprite
   01A4 E8 03              1781 	lda	sp,3(sp)
                           1782 ;	game/main.c 77
                           1783 ; genIpush
   01A6 3E 00              1784 	ld	a,#0x00
   01A8 F5                 1785 	push	af
   01A9 33                 1786 	inc	sp
                           1787 ; genIpush
   01AA 3E 04              1788 	ld	a,#0x04
   01AC F5                 1789 	push	af
   01AD 33                 1790 	inc	sp
                           1791 ; genIpush
   01AE 3E 01              1792 	ld	a,#0x01
   01B0 F5                 1793 	push	af
   01B1 33                 1794 	inc	sp
                           1795 ; genCall
   01B2 CD 00 00           1796 	call	_scroll_sprite
   01B5 E8 03              1797 	lda	sp,3(sp)
                           1798 ;	game/main.c 78
                           1799 ; genIpush
   01B7 3E 00              1800 	ld	a,#0x00
   01B9 F5                 1801 	push	af
   01BA 33                 1802 	inc	sp
                           1803 ; genIpush
   01BB 3E 04              1804 	ld	a,#0x04
   01BD F5                 1805 	push	af
   01BE 33                 1806 	inc	sp
                           1807 ; genIpush
   01BF 3E 02              1808 	ld	a,#0x02
   01C1 F5                 1809 	push	af
   01C2 33                 1810 	inc	sp
                           1811 ; genCall
   01C3 CD 00 00           1812 	call	_scroll_sprite
   01C6 E8 03              1813 	lda	sp,3(sp)
                           1814 ;	game/main.c 79
                           1815 ; genPlus
                           1816 ; AOP_HL for _player_x
                           1817 ; genPlusIncr
                           1818 ;	genPlusIncr failed
   01C8 21 A3 00           1819 	ld	hl,#_player_x + 0
   01CB 7E                 1820 	ld	a,(hl)
   01CC C6 04              1821 	add	a,#0x04
   01CE 22                 1822 	ld	(hl+),a
   01CF 7E                 1823 	ld	a,(hl)
   01D0 CE 00              1824 	adc	a,#0x00
   01D2 77                 1825 	ld	(hl),a
                           1826 ; genLabel
   01D3                    1827 00102$:
                           1828 ;	game/main.c 81
                           1829 ; genCmpEq
                           1830 ; AOP_HL for _player_direction
   01D3 21 0F 00           1831 	ld	hl,#_player_direction + 0
   01D6 7E                 1832 	ld	a,(hl) ; 2
   01D7 FE 02              1833 	cp	a,#0x02
   01D9 C2 E6 01           1834 	jp	nz,00139$
   01DC 23                 1835 	inc	hl
   01DD 7E                 1836 	ld	a,(hl) ; 2
                           1837 ; Rule 3
   01DE B7                 1838 	or	a,a
   01DF C2 E6 01           1839 	jp	nz,00139$
   01E2 3E 01              1840 	ld	a,#0x01
   01E4 18 01              1841 	jr	00140$
   01E6                    1842 00139$:
   01E6 AF                 1843 	xor	a,a
   01E7                    1844 00140$:
   01E7 47                 1845 	ld	b,a
                           1846 ; genIfx
                           1847 ; Removed redundent or a,a
   01E8 AF                 1848 	xor	a,a
   01E9 B0                 1849 	or	a,b
   01EA CA 4B 02           1850 	jp	z,00106$
                           1851 ; genCmpEq
                           1852 ; AOP_HL for _player_position
   01ED 21 05 00           1853 	ld	hl,#_player_position + 0
   01F0 7E                 1854 	ld	a,(hl) ; 2
   01F1 FE 05              1855 	cp	a,#0x05
                           1856 ; Rule 5
   01F3 CA 0D 02           1857 	jp	z,00105$
   01F6                    1858 00141$:
                           1859 ; genCmpEq
                           1860 ; AOP_HL for _player_position
   01F6 21 05 00           1861 	ld	hl,#_player_position + 0
   01F9 7E                 1862 	ld	a,(hl) ; 2
   01FA FE 08              1863 	cp	a,#0x08
                           1864 ; Rule 5
   01FC CA 0D 02           1865 	jp	z,00105$
   01FF                    1866 00142$:
                           1867 ; genCmpEq
                           1868 ; AOP_HL for _player_position
   01FF 21 05 00           1869 	ld	hl,#_player_position + 0
   0202 7E                 1870 	ld	a,(hl) ; 2
   0203 FE 0B              1871 	cp	a,#0x0B
   0205 C2 0A 02           1872 	jp	nz,00143$
   0208 18 03              1873 	jr	00144$
   020A                    1874 00143$:
   020A C3 4B 02           1875 	jp	00106$
   020D                    1876 00144$:
                           1877 ; genLabel
   020D                    1878 00105$:
                           1879 ;	game/main.c 82
                           1880 ; genIpush
   020D 3E 00              1881 	ld	a,#0x00
   020F F5                 1882 	push	af
   0210 33                 1883 	inc	sp
                           1884 ; genIpush
   0211 3E 02              1885 	ld	a,#0x02
   0213 F5                 1886 	push	af
   0214 33                 1887 	inc	sp
                           1888 ; genIpush
   0215 3E 00              1889 	ld	a,#0x00
   0217 F5                 1890 	push	af
   0218 33                 1891 	inc	sp
                           1892 ; genCall
   0219 CD 00 00           1893 	call	_scroll_sprite
   021C E8 03              1894 	lda	sp,3(sp)
                           1895 ;	game/main.c 83
                           1896 ; genIpush
   021E 3E 00              1897 	ld	a,#0x00
   0220 F5                 1898 	push	af
   0221 33                 1899 	inc	sp
                           1900 ; genIpush
   0222 3E 02              1901 	ld	a,#0x02
   0224 F5                 1902 	push	af
   0225 33                 1903 	inc	sp
                           1904 ; genIpush
   0226 3E 01              1905 	ld	a,#0x01
   0228 F5                 1906 	push	af
   0229 33                 1907 	inc	sp
                           1908 ; genCall
   022A CD 00 00           1909 	call	_scroll_sprite
   022D E8 03              1910 	lda	sp,3(sp)
                           1911 ;	game/main.c 84
                           1912 ; genIpush
   022F 3E 00              1913 	ld	a,#0x00
   0231 F5                 1914 	push	af
   0232 33                 1915 	inc	sp
                           1916 ; genIpush
   0233 3E 02              1917 	ld	a,#0x02
   0235 F5                 1918 	push	af
   0236 33                 1919 	inc	sp
                           1920 ; genIpush
   0237 3E 02              1921 	ld	a,#0x02
   0239 F5                 1922 	push	af
   023A 33                 1923 	inc	sp
                           1924 ; genCall
   023B CD 00 00           1925 	call	_scroll_sprite
   023E E8 03              1926 	lda	sp,3(sp)
                           1927 ;	game/main.c 85
                           1928 ; genPlus
                           1929 ; AOP_HL for _player_x
                           1930 ; genPlusIncr
                           1931 ;	genPlusIncr failed
   0240 21 A3 00           1932 	ld	hl,#_player_x + 0
   0243 7E                 1933 	ld	a,(hl)
   0244 C6 02              1934 	add	a,#0x02
   0246 22                 1935 	ld	(hl+),a
   0247 7E                 1936 	ld	a,(hl)
   0248 CE 00              1937 	adc	a,#0x00
   024A 77                 1938 	ld	(hl),a
                           1939 ; genLabel
   024B                    1940 00106$:
                           1941 ;	game/main.c 87
                           1942 ; genIfx
                           1943 ; Removed redundent or a,a
   024B AF                 1944 	xor	a,a
   024C B0                 1945 	or	a,b
   024D CA 9C 02           1946 	jp	z,00111$
                           1947 ; genCmpEq
                           1948 ; AOP_HL for _player_position
   0250 21 05 00           1949 	ld	hl,#_player_position + 0
   0253 7E                 1950 	ld	a,(hl) ; 2
   0254 FE 0A              1951 	cp	a,#0x0A
   0256 C2 5B 02           1952 	jp	nz,00145$
   0259 18 03              1953 	jr	00146$
   025B                    1954 00145$:
   025B C3 9C 02           1955 	jp	00111$
   025E                    1956 00146$:
                           1957 ;	game/main.c 88
                           1958 ; genIpush
   025E 3E 00              1959 	ld	a,#0x00
   0260 F5                 1960 	push	af
   0261 33                 1961 	inc	sp
                           1962 ; genIpush
   0262 3E FC              1963 	ld	a,#0xFC
   0264 F5                 1964 	push	af
   0265 33                 1965 	inc	sp
                           1966 ; genIpush
   0266 3E 00              1967 	ld	a,#0x00
   0268 F5                 1968 	push	af
   0269 33                 1969 	inc	sp
                           1970 ; genCall
   026A CD 00 00           1971 	call	_scroll_sprite
   026D E8 03              1972 	lda	sp,3(sp)
                           1973 ;	game/main.c 89
                           1974 ; genIpush
   026F 3E 00              1975 	ld	a,#0x00
   0271 F5                 1976 	push	af
   0272 33                 1977 	inc	sp
                           1978 ; genIpush
   0273 3E FC              1979 	ld	a,#0xFC
   0275 F5                 1980 	push	af
   0276 33                 1981 	inc	sp
                           1982 ; genIpush
   0277 3E 01              1983 	ld	a,#0x01
   0279 F5                 1984 	push	af
   027A 33                 1985 	inc	sp
                           1986 ; genCall
   027B CD 00 00           1987 	call	_scroll_sprite
   027E E8 03              1988 	lda	sp,3(sp)
                           1989 ;	game/main.c 90
                           1990 ; genIpush
   0280 3E 00              1991 	ld	a,#0x00
   0282 F5                 1992 	push	af
   0283 33                 1993 	inc	sp
                           1994 ; genIpush
   0284 3E FC              1995 	ld	a,#0xFC
   0286 F5                 1996 	push	af
   0287 33                 1997 	inc	sp
                           1998 ; genIpush
   0288 3E 02              1999 	ld	a,#0x02
   028A F5                 2000 	push	af
   028B 33                 2001 	inc	sp
                           2002 ; genCall
   028C CD 00 00           2003 	call	_scroll_sprite
   028F E8 03              2004 	lda	sp,3(sp)
                           2005 ;	game/main.c 91
                           2006 ; genMinus
                           2007 ; AOP_HL for _player_x
   0291 21 A3 00           2008 	ld	hl,#_player_x + 0
   0294 7E                 2009 	ld	a,(hl)
   0295 C6 FC              2010 	add	a,#0xFC
   0297 22                 2011 	ld	(hl+),a
   0298 7E                 2012 	ld	a,(hl)
   0299 CE FF              2013 	adc	a,#0xFF
   029B 77                 2014 	ld	(hl),a
                           2015 ; genLabel
   029C                    2016 00111$:
                           2017 ;	game/main.c 93
                           2018 ; genIfx
                           2019 ; Removed redundent or a,a
   029C AF                 2020 	xor	a,a
   029D B1                 2021 	or	a,c
   029E CA F6 02           2022 	jp	z,00114$
                           2023 ; genCmpEq
                           2024 ; AOP_HL for _player_position
   02A1 21 05 00           2025 	ld	hl,#_player_position + 0
   02A4 7E                 2026 	ld	a,(hl) ; 2
   02A5 FE 09              2027 	cp	a,#0x09
                           2028 ; Rule 5
   02A7 CA B8 02           2029 	jp	z,00113$
   02AA                    2030 00147$:
                           2031 ; genCmpEq
                           2032 ; AOP_HL for _player_position
   02AA 21 05 00           2033 	ld	hl,#_player_position + 0
   02AD 7E                 2034 	ld	a,(hl) ; 2
   02AE FE 06              2035 	cp	a,#0x06
   02B0 C2 B5 02           2036 	jp	nz,00148$
   02B3 18 03              2037 	jr	00149$
   02B5                    2038 00148$:
   02B5 C3 F6 02           2039 	jp	00114$
   02B8                    2040 00149$:
                           2041 ; genLabel
   02B8                    2042 00113$:
                           2043 ;	game/main.c 94
                           2044 ; genIpush
   02B8 3E 00              2045 	ld	a,#0x00
   02BA F5                 2046 	push	af
   02BB 33                 2047 	inc	sp
                           2048 ; genIpush
   02BC 3E FE              2049 	ld	a,#0xFE
   02BE F5                 2050 	push	af
   02BF 33                 2051 	inc	sp
                           2052 ; genIpush
   02C0 3E 00              2053 	ld	a,#0x00
   02C2 F5                 2054 	push	af
   02C3 33                 2055 	inc	sp
                           2056 ; genCall
   02C4 CD 00 00           2057 	call	_scroll_sprite
   02C7 E8 03              2058 	lda	sp,3(sp)
                           2059 ;	game/main.c 95
                           2060 ; genIpush
   02C9 3E 00              2061 	ld	a,#0x00
   02CB F5                 2062 	push	af
   02CC 33                 2063 	inc	sp
                           2064 ; genIpush
   02CD 3E FE              2065 	ld	a,#0xFE
   02CF F5                 2066 	push	af
   02D0 33                 2067 	inc	sp
                           2068 ; genIpush
   02D1 3E 01              2069 	ld	a,#0x01
   02D3 F5                 2070 	push	af
   02D4 33                 2071 	inc	sp
                           2072 ; genCall
   02D5 CD 00 00           2073 	call	_scroll_sprite
   02D8 E8 03              2074 	lda	sp,3(sp)
                           2075 ;	game/main.c 96
                           2076 ; genIpush
   02DA 3E 00              2077 	ld	a,#0x00
   02DC F5                 2078 	push	af
   02DD 33                 2079 	inc	sp
                           2080 ; genIpush
   02DE 3E FE              2081 	ld	a,#0xFE
   02E0 F5                 2082 	push	af
   02E1 33                 2083 	inc	sp
                           2084 ; genIpush
   02E2 3E 02              2085 	ld	a,#0x02
   02E4 F5                 2086 	push	af
   02E5 33                 2087 	inc	sp
                           2088 ; genCall
   02E6 CD 00 00           2089 	call	_scroll_sprite
   02E9 E8 03              2090 	lda	sp,3(sp)
                           2091 ;	game/main.c 97
                           2092 ; genMinus
                           2093 ; AOP_HL for _player_x
   02EB 21 A3 00           2094 	ld	hl,#_player_x + 0
   02EE 7E                 2095 	ld	a,(hl)
   02EF C6 FE              2096 	add	a,#0xFE
   02F1 22                 2097 	ld	(hl+),a
   02F2 7E                 2098 	ld	a,(hl)
   02F3 CE FF              2099 	adc	a,#0xFF
   02F5 77                 2100 	ld	(hl),a
                           2101 ; genLabel
   02F6                    2102 00114$:
                           2103 ;	game/main.c 99
                           2104 ; genIfx
                           2105 ; Removed redundent or a,a
   02F6 AF                 2106 	xor	a,a
   02F7 B0                 2107 	or	a,b
   02F8 CA 50 03           2108 	jp	z,00118$
                           2109 ; genCmpEq
                           2110 ; AOP_HL for _player_position
   02FB 21 05 00           2111 	ld	hl,#_player_position + 0
   02FE 7E                 2112 	ld	a,(hl) ; 2
   02FF FE 09              2113 	cp	a,#0x09
                           2114 ; Rule 5
   0301 CA 12 03           2115 	jp	z,00117$
   0304                    2116 00150$:
                           2117 ; genCmpEq
                           2118 ; AOP_HL for _player_position
   0304 21 05 00           2119 	ld	hl,#_player_position + 0
   0307 7E                 2120 	ld	a,(hl) ; 2
   0308 FE 06              2121 	cp	a,#0x06
   030A C2 0F 03           2122 	jp	nz,00151$
   030D 18 03              2123 	jr	00152$
   030F                    2124 00151$:
   030F C3 50 03           2125 	jp	00118$
   0312                    2126 00152$:
                           2127 ; genLabel
   0312                    2128 00117$:
                           2129 ;	game/main.c 100
                           2130 ; genIpush
   0312 3E 00              2131 	ld	a,#0x00
   0314 F5                 2132 	push	af
   0315 33                 2133 	inc	sp
                           2134 ; genIpush
   0316 3E FC              2135 	ld	a,#0xFC
   0318 F5                 2136 	push	af
   0319 33                 2137 	inc	sp
                           2138 ; genIpush
   031A 3E 00              2139 	ld	a,#0x00
   031C F5                 2140 	push	af
   031D 33                 2141 	inc	sp
                           2142 ; genCall
   031E CD 00 00           2143 	call	_scroll_sprite
   0321 E8 03              2144 	lda	sp,3(sp)
                           2145 ;	game/main.c 101
                           2146 ; genIpush
   0323 3E 00              2147 	ld	a,#0x00
   0325 F5                 2148 	push	af
   0326 33                 2149 	inc	sp
                           2150 ; genIpush
   0327 3E FC              2151 	ld	a,#0xFC
   0329 F5                 2152 	push	af
   032A 33                 2153 	inc	sp
                           2154 ; genIpush
   032B 3E 01              2155 	ld	a,#0x01
   032D F5                 2156 	push	af
   032E 33                 2157 	inc	sp
                           2158 ; genCall
   032F CD 00 00           2159 	call	_scroll_sprite
   0332 E8 03              2160 	lda	sp,3(sp)
                           2161 ;	game/main.c 102
                           2162 ; genIpush
   0334 3E 00              2163 	ld	a,#0x00
   0336 F5                 2164 	push	af
   0337 33                 2165 	inc	sp
                           2166 ; genIpush
   0338 3E FC              2167 	ld	a,#0xFC
   033A F5                 2168 	push	af
   033B 33                 2169 	inc	sp
                           2170 ; genIpush
   033C 3E 02              2171 	ld	a,#0x02
   033E F5                 2172 	push	af
   033F 33                 2173 	inc	sp
                           2174 ; genCall
   0340 CD 00 00           2175 	call	_scroll_sprite
   0343 E8 03              2176 	lda	sp,3(sp)
                           2177 ;	game/main.c 103
                           2178 ; genMinus
                           2179 ; AOP_HL for _player_x
   0345 21 A3 00           2180 	ld	hl,#_player_x + 0
   0348 7E                 2181 	ld	a,(hl)
   0349 C6 FC              2182 	add	a,#0xFC
   034B 22                 2183 	ld	(hl+),a
   034C 7E                 2184 	ld	a,(hl)
   034D CE FF              2185 	adc	a,#0xFF
   034F 77                 2186 	ld	(hl),a
                           2187 ; genLabel
   0350                    2188 00118$:
                           2189 ;	game/main.c 105
                           2190 ; genAssign
                           2191 ; AOP_HL for _requires_scrolling_x
   0350 21 06 00           2192 	ld	hl,#_requires_scrolling_x + 0
   0353 36 00              2193 	ld	(hl),#0x00
                           2194 ;	game/main.c 106
                           2195 ; genAssign
                           2196 ; AOP_HL for _has_reached
   0355 21 08 00           2197 	ld	hl,#_has_reached + 0
   0358 36 01              2198 	ld	(hl),#0x01
                           2199 ; genLabel
   035A                    2200 00121$:
                           2201 ; genEndFunction
                           2202 	
   035A C1                 2203 	pop	bc
   035B C9                 2204 	ret
   035C                    2205 ___requires_offset_end:
                           2206 ;	game/main.c 109
                           2207 ; genLabel
                           2208 ; genFunction
                           2209 ;	---------------------------------
                           2210 ; Function scroll_player_sprite
                           2211 ; ---------------------------------
   035C                    2212 ___scroll_player_sprite_start:
   035C                    2213 _scroll_player_sprite:
                           2214 	
                           2215 ;	game/main.c 110
                           2216 ; genCmpEq
                           2217 ; AOP_HL for _requires_scrolling_x
   035C 21 06 00           2218 	ld	hl,#_requires_scrolling_x + 0
   035F 7E                 2219 	ld	a,(hl) ; 2
   0360 FE 01              2220 	cp	a,#0x01
   0362 C2 67 03           2221 	jp	nz,00128$
   0365 18 03              2222 	jr	00129$
   0367                    2223 00128$:
   0367 C3 3B 04           2224 	jp	00116$
   036A                    2225 00129$:
                           2226 ;	game/main.c 111
                           2227 ; genCmpGt
                           2228 ; AOP_HL for _player_x
                           2229 ; AOP_HL for _player_new_x
   036A 21 A8 00           2230 	ld	hl,#_player_new_x + 0 + 1
   036D 7E                 2231 	ld	a,(hl)
   036E EE 80              2232 	xor	a,#0x80
   0370 5F                 2233 	ld	e,a
   0371 21 A4 00           2234 	ld	hl,#_player_x + 0 + 1
   0374 7E                 2235 	ld	a,(hl)
   0375 EE 80              2236 	xor	a,#0x80
   0377 57                 2237 	ld	d,a
   0378 21 A7 00           2238 	ld	hl,#_player_new_x + 0
   037B 7E                 2239 	ld	a,(hl)
   037C 21 A3 00           2240 	ld	hl,#_player_x + 0
   037F 9E                 2241 	sbc	a,(hl) ; 2
   0380 7B                 2242 	ld	a,e
   0381 9A                 2243 	sbc	a,d
   0382 D2 C3 03           2244 	jp	nc,00102$
                           2245 ;	game/main.c 112
                           2246 ; genIpush
   0385 3E 00              2247 	ld	a,#0x00
   0387 F5                 2248 	push	af
   0388 33                 2249 	inc	sp
                           2250 ; genIpush
   0389 3E FE              2251 	ld	a,#0xFE
   038B F5                 2252 	push	af
   038C 33                 2253 	inc	sp
                           2254 ; genIpush
   038D 3E 00              2255 	ld	a,#0x00
   038F F5                 2256 	push	af
   0390 33                 2257 	inc	sp
                           2258 ; genCall
   0391 CD 00 00           2259 	call	_scroll_sprite
   0394 E8 03              2260 	lda	sp,3(sp)
                           2261 ;	game/main.c 113
                           2262 ; genIpush
   0396 3E 00              2263 	ld	a,#0x00
   0398 F5                 2264 	push	af
   0399 33                 2265 	inc	sp
                           2266 ; genIpush
   039A 3E FE              2267 	ld	a,#0xFE
   039C F5                 2268 	push	af
   039D 33                 2269 	inc	sp
                           2270 ; genIpush
   039E 3E 01              2271 	ld	a,#0x01
   03A0 F5                 2272 	push	af
   03A1 33                 2273 	inc	sp
                           2274 ; genCall
   03A2 CD 00 00           2275 	call	_scroll_sprite
   03A5 E8 03              2276 	lda	sp,3(sp)
                           2277 ;	game/main.c 114
                           2278 ; genIpush
   03A7 3E 00              2279 	ld	a,#0x00
   03A9 F5                 2280 	push	af
   03AA 33                 2281 	inc	sp
                           2282 ; genIpush
   03AB 3E FE              2283 	ld	a,#0xFE
   03AD F5                 2284 	push	af
   03AE 33                 2285 	inc	sp
                           2286 ; genIpush
   03AF 3E 02              2287 	ld	a,#0x02
   03B1 F5                 2288 	push	af
   03B2 33                 2289 	inc	sp
                           2290 ; genCall
   03B3 CD 00 00           2291 	call	_scroll_sprite
   03B6 E8 03              2292 	lda	sp,3(sp)
                           2293 ;	game/main.c 115
                           2294 ; genMinus
                           2295 ; AOP_HL for _player_x
   03B8 21 A3 00           2296 	ld	hl,#_player_x + 0
   03BB 7E                 2297 	ld	a,(hl)
   03BC C6 FE              2298 	add	a,#0xFE
   03BE 22                 2299 	ld	(hl+),a
   03BF 7E                 2300 	ld	a,(hl)
   03C0 CE FF              2301 	adc	a,#0xFF
   03C2 77                 2302 	ld	(hl),a
                           2303 ; genLabel
   03C3                    2304 00102$:
                           2305 ;	game/main.c 117
                           2306 ; genCmpLt
                           2307 ; AOP_HL for _player_x
                           2308 ; AOP_HL for _player_new_x
   03C3 21 A4 00           2309 	ld	hl,#_player_x + 0 + 1
   03C6 7E                 2310 	ld	a,(hl)
   03C7 EE 80              2311 	xor	a,#0x80
   03C9 5F                 2312 	ld	e,a
   03CA 21 A8 00           2313 	ld	hl,#_player_new_x + 0 + 1
   03CD 7E                 2314 	ld	a,(hl)
   03CE EE 80              2315 	xor	a,#0x80
   03D0 57                 2316 	ld	d,a
   03D1 21 A3 00           2317 	ld	hl,#_player_x + 0
   03D4 7E                 2318 	ld	a,(hl)
   03D5 21 A7 00           2319 	ld	hl,#_player_new_x + 0
   03D8 9E                 2320 	sbc	a,(hl) ; 2
   03D9 7B                 2321 	ld	a,e
   03DA 9A                 2322 	sbc	a,d
   03DB D2 1C 04           2323 	jp	nc,00104$
                           2324 ;	game/main.c 118
                           2325 ; genIpush
   03DE 3E 00              2326 	ld	a,#0x00
   03E0 F5                 2327 	push	af
   03E1 33                 2328 	inc	sp
                           2329 ; genIpush
   03E2 3E 02              2330 	ld	a,#0x02
   03E4 F5                 2331 	push	af
   03E5 33                 2332 	inc	sp
                           2333 ; genIpush
   03E6 3E 00              2334 	ld	a,#0x00
   03E8 F5                 2335 	push	af
   03E9 33                 2336 	inc	sp
                           2337 ; genCall
   03EA CD 00 00           2338 	call	_scroll_sprite
   03ED E8 03              2339 	lda	sp,3(sp)
                           2340 ;	game/main.c 119
                           2341 ; genIpush
   03EF 3E 00              2342 	ld	a,#0x00
   03F1 F5                 2343 	push	af
   03F2 33                 2344 	inc	sp
                           2345 ; genIpush
   03F3 3E 02              2346 	ld	a,#0x02
   03F5 F5                 2347 	push	af
   03F6 33                 2348 	inc	sp
                           2349 ; genIpush
   03F7 3E 01              2350 	ld	a,#0x01
   03F9 F5                 2351 	push	af
   03FA 33                 2352 	inc	sp
                           2353 ; genCall
   03FB CD 00 00           2354 	call	_scroll_sprite
   03FE E8 03              2355 	lda	sp,3(sp)
                           2356 ;	game/main.c 120
                           2357 ; genIpush
   0400 3E 00              2358 	ld	a,#0x00
   0402 F5                 2359 	push	af
   0403 33                 2360 	inc	sp
                           2361 ; genIpush
   0404 3E 02              2362 	ld	a,#0x02
   0406 F5                 2363 	push	af
   0407 33                 2364 	inc	sp
                           2365 ; genIpush
   0408 3E 02              2366 	ld	a,#0x02
   040A F5                 2367 	push	af
   040B 33                 2368 	inc	sp
                           2369 ; genCall
   040C CD 00 00           2370 	call	_scroll_sprite
   040F E8 03              2371 	lda	sp,3(sp)
                           2372 ;	game/main.c 121
                           2373 ; genPlus
                           2374 ; AOP_HL for _player_x
                           2375 ; genPlusIncr
                           2376 ;	genPlusIncr failed
   0411 21 A3 00           2377 	ld	hl,#_player_x + 0
   0414 7E                 2378 	ld	a,(hl)
   0415 C6 02              2379 	add	a,#0x02
   0417 22                 2380 	ld	(hl+),a
   0418 7E                 2381 	ld	a,(hl)
   0419 CE 00              2382 	adc	a,#0x00
   041B 77                 2383 	ld	(hl),a
                           2384 ; genLabel
   041C                    2385 00104$:
                           2386 ;	game/main.c 123
                           2387 ; genCmpEq
                           2388 ; AOP_HL for _player_x
                           2389 ; AOP_HL for _player_new_x
   041C 21 A7 00           2390 	ld	hl,#_player_new_x + 0
   041F 7E                 2391 	ld	a,(hl)
   0420 21 A3 00           2392 	ld	hl,#_player_x + 0
   0423 BE                 2393 	cp	(hl) ; 5
   0424 20 0C              2394 	jr	nz,00130$
   0426 21 A8 00           2395 	ld	hl,#_player_new_x + 0 + 1
   0429 7E                 2396 	ld	a,(hl)
   042A 21 A4 00           2397 	ld	hl,#_player_x + 0 + 1
   042D BE                 2398 	cp	(hl) ; 5
   042E 20 02              2399 	jr	nz,00130$
   0430 18 03              2400 	jr	00131$
   0432                    2401 00130$:
   0432 C3 1E 05           2402 	jp	00118$
   0435                    2403 00131$:
                           2404 ;	game/main.c 124
                           2405 ; genCall
   0435 CD 6A 01           2406 	call	_requires_offset
                           2407 ; genGoto
   0438 C3 1E 05           2408 	jp	00118$
                           2409 ; genLabel
   043B                    2410 00116$:
                           2411 ;	game/main.c 127
                           2412 ; genCmpEq
                           2413 ; AOP_HL for _requires_scrolling_y
   043B 21 07 00           2414 	ld	hl,#_requires_scrolling_y + 0
   043E 7E                 2415 	ld	a,(hl) ; 2
   043F FE 01              2416 	cp	a,#0x01
   0441 C2 46 04           2417 	jp	nz,00132$
   0444 18 03              2418 	jr	00133$
   0446                    2419 00132$:
   0446 C3 1E 05           2420 	jp	00118$
   0449                    2421 00133$:
                           2422 ;	game/main.c 128
                           2423 ; genCmpGt
                           2424 ; AOP_HL for _player_y
                           2425 ; AOP_HL for _player_new_y
   0449 21 AA 00           2426 	ld	hl,#_player_new_y + 0 + 1
   044C 7E                 2427 	ld	a,(hl)
   044D EE 80              2428 	xor	a,#0x80
   044F 5F                 2429 	ld	e,a
   0450 21 A6 00           2430 	ld	hl,#_player_y + 0 + 1
   0453 7E                 2431 	ld	a,(hl)
   0454 EE 80              2432 	xor	a,#0x80
   0456 57                 2433 	ld	d,a
   0457 21 A9 00           2434 	ld	hl,#_player_new_y + 0
   045A 7E                 2435 	ld	a,(hl)
   045B 21 A5 00           2436 	ld	hl,#_player_y + 0
   045E 9E                 2437 	sbc	a,(hl) ; 2
   045F 7B                 2438 	ld	a,e
   0460 9A                 2439 	sbc	a,d
   0461 D2 A2 04           2440 	jp	nc,00108$
                           2441 ;	game/main.c 129
                           2442 ; genIpush
   0464 3E FE              2443 	ld	a,#0xFE
   0466 F5                 2444 	push	af
   0467 33                 2445 	inc	sp
                           2446 ; genIpush
   0468 3E 00              2447 	ld	a,#0x00
   046A F5                 2448 	push	af
   046B 33                 2449 	inc	sp
                           2450 ; genIpush
   046C 3E 00              2451 	ld	a,#0x00
   046E F5                 2452 	push	af
   046F 33                 2453 	inc	sp
                           2454 ; genCall
   0470 CD 00 00           2455 	call	_scroll_sprite
   0473 E8 03              2456 	lda	sp,3(sp)
                           2457 ;	game/main.c 130
                           2458 ; genIpush
   0475 3E FE              2459 	ld	a,#0xFE
   0477 F5                 2460 	push	af
   0478 33                 2461 	inc	sp
                           2462 ; genIpush
   0479 3E 00              2463 	ld	a,#0x00
   047B F5                 2464 	push	af
   047C 33                 2465 	inc	sp
                           2466 ; genIpush
   047D 3E 01              2467 	ld	a,#0x01
   047F F5                 2468 	push	af
   0480 33                 2469 	inc	sp
                           2470 ; genCall
   0481 CD 00 00           2471 	call	_scroll_sprite
   0484 E8 03              2472 	lda	sp,3(sp)
                           2473 ;	game/main.c 131
                           2474 ; genIpush
   0486 3E FE              2475 	ld	a,#0xFE
   0488 F5                 2476 	push	af
   0489 33                 2477 	inc	sp
                           2478 ; genIpush
   048A 3E 00              2479 	ld	a,#0x00
   048C F5                 2480 	push	af
   048D 33                 2481 	inc	sp
                           2482 ; genIpush
   048E 3E 02              2483 	ld	a,#0x02
   0490 F5                 2484 	push	af
   0491 33                 2485 	inc	sp
                           2486 ; genCall
   0492 CD 00 00           2487 	call	_scroll_sprite
   0495 E8 03              2488 	lda	sp,3(sp)
                           2489 ;	game/main.c 132
                           2490 ; genMinus
                           2491 ; AOP_HL for _player_y
   0497 21 A5 00           2492 	ld	hl,#_player_y + 0
   049A 7E                 2493 	ld	a,(hl)
   049B C6 FE              2494 	add	a,#0xFE
   049D 22                 2495 	ld	(hl+),a
   049E 7E                 2496 	ld	a,(hl)
   049F CE FF              2497 	adc	a,#0xFF
   04A1 77                 2498 	ld	(hl),a
                           2499 ; genLabel
   04A2                    2500 00108$:
                           2501 ;	game/main.c 134
                           2502 ; genCmpLt
                           2503 ; AOP_HL for _player_y
                           2504 ; AOP_HL for _player_new_y
   04A2 21 A6 00           2505 	ld	hl,#_player_y + 0 + 1
   04A5 7E                 2506 	ld	a,(hl)
   04A6 EE 80              2507 	xor	a,#0x80
   04A8 5F                 2508 	ld	e,a
   04A9 21 AA 00           2509 	ld	hl,#_player_new_y + 0 + 1
   04AC 7E                 2510 	ld	a,(hl)
   04AD EE 80              2511 	xor	a,#0x80
   04AF 57                 2512 	ld	d,a
   04B0 21 A5 00           2513 	ld	hl,#_player_y + 0
   04B3 7E                 2514 	ld	a,(hl)
   04B4 21 A9 00           2515 	ld	hl,#_player_new_y + 0
   04B7 9E                 2516 	sbc	a,(hl) ; 2
   04B8 7B                 2517 	ld	a,e
   04B9 9A                 2518 	sbc	a,d
   04BA D2 FB 04           2519 	jp	nc,00110$
                           2520 ;	game/main.c 135
                           2521 ; genIpush
   04BD 3E 02              2522 	ld	a,#0x02
   04BF F5                 2523 	push	af
   04C0 33                 2524 	inc	sp
                           2525 ; genIpush
   04C1 3E 00              2526 	ld	a,#0x00
   04C3 F5                 2527 	push	af
   04C4 33                 2528 	inc	sp
                           2529 ; genIpush
   04C5 3E 00              2530 	ld	a,#0x00
   04C7 F5                 2531 	push	af
   04C8 33                 2532 	inc	sp
                           2533 ; genCall
   04C9 CD 00 00           2534 	call	_scroll_sprite
   04CC E8 03              2535 	lda	sp,3(sp)
                           2536 ;	game/main.c 136
                           2537 ; genIpush
   04CE 3E 02              2538 	ld	a,#0x02
   04D0 F5                 2539 	push	af
   04D1 33                 2540 	inc	sp
                           2541 ; genIpush
   04D2 3E 00              2542 	ld	a,#0x00
   04D4 F5                 2543 	push	af
   04D5 33                 2544 	inc	sp
                           2545 ; genIpush
   04D6 3E 01              2546 	ld	a,#0x01
   04D8 F5                 2547 	push	af
   04D9 33                 2548 	inc	sp
                           2549 ; genCall
   04DA CD 00 00           2550 	call	_scroll_sprite
   04DD E8 03              2551 	lda	sp,3(sp)
                           2552 ;	game/main.c 137
                           2553 ; genIpush
   04DF 3E 02              2554 	ld	a,#0x02
   04E1 F5                 2555 	push	af
   04E2 33                 2556 	inc	sp
                           2557 ; genIpush
   04E3 3E 00              2558 	ld	a,#0x00
   04E5 F5                 2559 	push	af
   04E6 33                 2560 	inc	sp
                           2561 ; genIpush
   04E7 3E 02              2562 	ld	a,#0x02
   04E9 F5                 2563 	push	af
   04EA 33                 2564 	inc	sp
                           2565 ; genCall
   04EB CD 00 00           2566 	call	_scroll_sprite
   04EE E8 03              2567 	lda	sp,3(sp)
                           2568 ;	game/main.c 138
                           2569 ; genPlus
                           2570 ; AOP_HL for _player_y
                           2571 ; genPlusIncr
                           2572 ;	genPlusIncr failed
   04F0 21 A5 00           2573 	ld	hl,#_player_y + 0
   04F3 7E                 2574 	ld	a,(hl)
   04F4 C6 02              2575 	add	a,#0x02
   04F6 22                 2576 	ld	(hl+),a
   04F7 7E                 2577 	ld	a,(hl)
   04F8 CE 00              2578 	adc	a,#0x00
   04FA 77                 2579 	ld	(hl),a
                           2580 ; genLabel
   04FB                    2581 00110$:
                           2582 ;	game/main.c 140
                           2583 ; genCmpEq
                           2584 ; AOP_HL for _player_y
                           2585 ; AOP_HL for _player_new_y
   04FB 21 A9 00           2586 	ld	hl,#_player_new_y + 0
   04FE 7E                 2587 	ld	a,(hl)
   04FF 21 A5 00           2588 	ld	hl,#_player_y + 0
   0502 BE                 2589 	cp	(hl) ; 5
   0503 20 0C              2590 	jr	nz,00134$
   0505 21 AA 00           2591 	ld	hl,#_player_new_y + 0 + 1
   0508 7E                 2592 	ld	a,(hl)
   0509 21 A6 00           2593 	ld	hl,#_player_y + 0 + 1
   050C BE                 2594 	cp	(hl) ; 5
   050D 20 02              2595 	jr	nz,00134$
   050F 18 03              2596 	jr	00135$
   0511                    2597 00134$:
   0511 C3 1E 05           2598 	jp	00118$
   0514                    2599 00135$:
                           2600 ;	game/main.c 141
                           2601 ; genAssign
                           2602 ; AOP_HL for _requires_scrolling_y
   0514 21 07 00           2603 	ld	hl,#_requires_scrolling_y + 0
   0517 36 00              2604 	ld	(hl),#0x00
                           2605 ;	game/main.c 142
                           2606 ; genAssign
                           2607 ; AOP_HL for _has_reached
   0519 21 08 00           2608 	ld	hl,#_has_reached + 0
   051C 36 01              2609 	ld	(hl),#0x01
                           2610 ; genLabel
   051E                    2611 00118$:
                           2612 ; genEndFunction
                           2613 	
   051E C9                 2614 	ret
   051F                    2615 ___scroll_player_sprite_end:
                           2616 ;	game/main.c 147
                           2617 ; genLabel
                           2618 ; genFunction
                           2619 ;	---------------------------------
                           2620 ; Function process_player_position
                           2621 ; ---------------------------------
   051F                    2622 ___process_player_position_start:
   051F                    2623 _process_player_position:
   051F C5                 2624 	push	bc
   0520 E8 FE              2625 	lda	sp,-2(sp)
                           2626 ;	game/main.c 148
                           2627 ; genLeftShift
                           2628 ; AOP_HL for _player_position
   0522 21 05 00           2629 	ld	hl,#_player_position + 0
   0525 7E                 2630 	ld	a,(hl)
   0526 CB 17              2631 	rl	a
   0528 CB 17              2632 	rl	a
   052A CB 17              2633 	rl	a
   052C E6 F8              2634 	and	a,#0xF8
   052E 4F                 2635 	ld	c,a
                           2636 ; genPlus
                           2637 ; AOP_STK for _process_player_position_sloc0_1_0
                           2638 ;	genPlusIncr failed
   052F 11 13 00           2639 	ld	de,#_movements + 0
   0532 69                 2640 	ld	l,c
   0533 26 00              2641 	ld	h,#0x00
   0535 19                 2642 	add	hl,de
   0536 7D                 2643 	ld	a,l
   0537 54                 2644 	ld	d,h
   0538 F8 00              2645 	lda	hl,0(sp)
   053A 22                 2646 	ld	(hl+),a
   053B 72                 2647 	ld	(hl),d
                           2648 ; genLeftShift
                           2649 ; AOP_HL for _player_direction
   053C 21 0F 00           2650 	ld	hl,#_player_direction + 0
   053F 4E                 2651 	ld	c,(hl)
   0540 23                 2652 	inc	hl
   0541 46                 2653 	ld	b,(hl)
   0542 B7                 2654 	or	a,a
   0543 CB 11              2655 	rl	c
   0545 CB 10              2656 	rl	b
                           2657 ; genPlus
                           2658 ; AOP_STK for _process_player_position_sloc0_1_0
                           2659 ;	genPlusIncr failed
   0547 F8 00              2660 	lda	hl,0(sp)
   0549 2A                 2661 	ld	a,(hl+)
   054A 66                 2662 	ld	h,(hl)
   054B 6F                 2663 	ld	l,a
   054C 09                 2664 	add	hl,bc
   054D 5D                 2665 	ld	e,l
   054E 54                 2666 	ld	d,h
                           2667 ; genPointerGet
                           2668 ; Removed redundent load
                           2669 ; Removed redundent load
   054F 1A                 2670 	ld	a,(de)
   0550 4F                 2671 	ld	c,a
   0551 13                 2672 	inc	de
   0552 1A                 2673 	ld	a,(de)
   0553 47                 2674 	ld	b,a
                           2675 ;	game/main.c 149
                           2676 ; genCmpEq
   0554 79                 2677 	ld	a,c ; 2
   0555 FE 01              2678 	cp	a,#0x01
   0557 C2 61 05           2679 	jp	nz,00120$
   055A 78                 2680 	ld	a,b ; 2
                           2681 ; Rule 3
   055B B7                 2682 	or	a,a
   055C C2 61 05           2683 	jp	nz,00120$
   055F 18 03              2684 	jr	00121$
   0561                    2685 00120$:
   0561 C3 EA 05           2686 	jp	00111$
   0564                    2687 00121$:
                           2688 ;	game/main.c 150
                           2689 ; genCmpEq
                           2690 ; AOP_HL for _player_direction
   0564 21 0F 00           2691 	ld	hl,#_player_direction + 0
   0567 7E                 2692 	ld	a,(hl) ; 2
   0568 FE 02              2693 	cp	a,#0x02
   056A C2 75 05           2694 	jp	nz,00122$
   056D 23                 2695 	inc	hl
   056E 7E                 2696 	ld	a,(hl) ; 2
                           2697 ; Rule 3
   056F B7                 2698 	or	a,a
   0570 C2 75 05           2699 	jp	nz,00122$
   0573 18 03              2700 	jr	00123$
   0575                    2701 00122$:
   0575 C3 7C 05           2702 	jp	00102$
   0578                    2703 00123$:
                           2704 ;	game/main.c 151
                           2705 ; genPlus
                           2706 ; AOP_HL for _player_position
                           2707 ; genPlusIncr
   0578 21 05 00           2708 	ld	hl,#_player_position + 0
   057B 34                 2709 	inc	(hl)
                           2710 ; genLabel
   057C                    2711 00102$:
                           2712 ;	game/main.c 153
                           2713 ; genCmpEq
                           2714 ; AOP_HL for _player_direction
   057C 21 0F 00           2715 	ld	hl,#_player_direction + 0
   057F 2A                 2716 	ld	a,(hl+)
   0580 B6                 2717 	or	a,(hl)
   0581 C2 86 05           2718 	jp	nz,00124$
   0584 18 03              2719 	jr	00125$
   0586                    2720 00124$:
   0586 C3 8D 05           2721 	jp	00104$
   0589                    2722 00125$:
                           2723 ;	game/main.c 154
                           2724 ; genMinus
                           2725 ; AOP_HL for _player_position
   0589 21 05 00           2726 	ld	hl,#_player_position + 0
   058C 35                 2727 	dec	(hl)
                           2728 ; genLabel
   058D                    2729 00104$:
                           2730 ;	game/main.c 156
                           2731 ; genCmpEq
                           2732 ; AOP_HL for _player_direction
   058D 21 0F 00           2733 	ld	hl,#_player_direction + 0
   0590 7E                 2734 	ld	a,(hl) ; 2
   0591 FE 01              2735 	cp	a,#0x01
   0593 C2 9E 05           2736 	jp	nz,00126$
   0596 23                 2737 	inc	hl
   0597 7E                 2738 	ld	a,(hl) ; 2
                           2739 ; Rule 3
   0598 B7                 2740 	or	a,a
   0599 C2 9E 05           2741 	jp	nz,00126$
   059C 18 03              2742 	jr	00127$
   059E                    2743 00126$:
   059E C3 A7 05           2744 	jp	00106$
   05A1                    2745 00127$:
                           2746 ;	game/main.c 157
                           2747 ; genPlus
                           2748 ; AOP_HL for _player_position
                           2749 ; genPlusIncr
   05A1 21 05 00           2750 	ld	hl,#_player_position + 0
   05A4 34                 2751 	inc	(hl)
   05A5 34                 2752 	inc	(hl)
   05A6 34                 2753 	inc	(hl)
                           2754 ; genLabel
   05A7                    2755 00106$:
                           2756 ;	game/main.c 159
                           2757 ; genCmpEq
                           2758 ; AOP_HL for _player_direction
   05A7 21 0F 00           2759 	ld	hl,#_player_direction + 0
   05AA 7E                 2760 	ld	a,(hl) ; 2
   05AB FE 03              2761 	cp	a,#0x03
   05AD C2 B8 05           2762 	jp	nz,00128$
   05B0 23                 2763 	inc	hl
   05B1 7E                 2764 	ld	a,(hl) ; 2
                           2765 ; Rule 3
   05B2 B7                 2766 	or	a,a
   05B3 C2 B8 05           2767 	jp	nz,00128$
   05B6 18 03              2768 	jr	00129$
   05B8                    2769 00128$:
   05B8 C3 C2 05           2770 	jp	00108$
   05BB                    2771 00129$:
                           2772 ;	game/main.c 160
                           2773 ; genMinus
                           2774 ; AOP_HL for _player_position
   05BB 21 05 00           2775 	ld	hl,#_player_position + 0
   05BE 7E                 2776 	ld	a,(hl)
   05BF C6 FD              2777 	add	a,#0xFD
   05C1 77                 2778 	ld	(hl),a
                           2779 ; genLabel
   05C2                    2780 00108$:
                           2781 ;	game/main.c 163
                           2782 ; genLeftShift
                           2783 ; AOP_HL for _player_position
   05C2 21 05 00           2784 	ld	hl,#_player_position + 0
   05C5 7E                 2785 	ld	a,(hl)
   05C6 87                 2786 	add	a,a
   05C7 87                 2787 	add	a,a
   05C8 4F                 2788 	ld	c,a
                           2789 ; genPlus
                           2790 ;	genPlusIncr failed
   05C9 3E 73              2791 	ld	a,#<_positions
   05CB 81                 2792 	add	a,c
   05CC 4F                 2793 	ld	c,a
   05CD 3E 00              2794 	ld	a,#>_positions
   05CF CE 00              2795 	adc	a,#0x00
   05D1 47                 2796 	ld	b,a
                           2797 ; genPointerGet
                           2798 ; AOP_HL for _player_new_x
   05D2 59                 2799 	ld	e,c
   05D3 50                 2800 	ld	d,b
   05D4 1A                 2801 	ld	a,(de)
   05D5 21 A7 00           2802 	ld	hl,#_player_new_x + 0
   05D8 77                 2803 	ld	(hl),a
   05D9 13                 2804 	inc	de
   05DA 1A                 2805 	ld	a,(de)
   05DB 23                 2806 	inc	hl
   05DC 77                 2807 	ld	(hl),a
                           2808 ;	game/main.c 164
                           2809 ; genPlus
                           2810 ; genPlusIncr
   05DD 59                 2811 	ld	e,c
   05DE 50                 2812 	ld	d,b
   05DF 13                 2813 	inc	de
   05E0 13                 2814 	inc	de
                           2815 ; genPointerGet
                           2816 ; AOP_HL for _player_new_y
                           2817 ; Removed redundent load
                           2818 ; Removed redundent load
   05E1 1A                 2819 	ld	a,(de)
   05E2 21 A9 00           2820 	ld	hl,#_player_new_y + 0
   05E5 77                 2821 	ld	(hl),a
   05E6 13                 2822 	inc	de
   05E7 1A                 2823 	ld	a,(de)
   05E8 23                 2824 	inc	hl
   05E9 77                 2825 	ld	(hl),a
                           2826 ; genLabel
   05EA                    2827 00111$:
                           2828 ; genEndFunction
   05EA E8 02              2829 	lda	sp,2(sp)
   05EC C1                 2830 	pop	bc
   05ED C9                 2831 	ret
   05EE                    2832 ___process_player_position_end:
                           2833 ;	game/main.c 168
                           2834 ; genLabel
                           2835 ; genFunction
                           2836 ;	---------------------------------
                           2837 ; Function process_input
                           2838 ; ---------------------------------
   05EE                    2839 ___process_input_start:
   05EE                    2840 _process_input:
   05EE C5                 2841 	push	bc
                           2842 	
                           2843 ;	game/main.c 169
                           2844 ; genCall
   05EF CD 00 00           2845 	call	_joypad
   05F2 4B                 2846 	ld	c,e
                           2847 ; genCmpEq
   05F3 79                 2848 	ld	a,c ; 2
   05F4 FE 01              2849 	cp	a,#0x01
                           2850 ; Rule 5
   05F6 CA 0E 06           2851 	jp	z,00103$
   05F9                    2852 00124$:
                           2853 ; genCmpEq
   05F9 79                 2854 	ld	a,c ; 2
   05FA FE 02              2855 	cp	a,#0x02
                           2856 ; Rule 5
   05FC CA 39 06           2857 	jp	z,00106$
   05FF                    2858 00125$:
                           2859 ; genCmpEq
   05FF 79                 2860 	ld	a,c ; 2
   0600 FE 04              2861 	cp	a,#0x04
                           2862 ; Rule 5
   0602 CA 5F 06           2863 	jp	z,00109$
   0605                    2864 00126$:
                           2865 ; genCmpEq
   0605 79                 2866 	ld	a,c ; 2
   0606 FE 08              2867 	cp	a,#0x08
                           2868 ; Rule 5
   0608 CA 85 06           2869 	jp	z,00112$
   060B                    2870 00127$:
                           2871 ; genGoto
   060B C3 A8 06           2872 	jp	00114$
                           2873 ;	game/main.c 178
                           2874 ; genLabel
   060E                    2875 00103$:
                           2876 ;	game/main.c 171
                           2877 ; genCmpEq
                           2878 ; AOP_HL for _has_reached
   060E 21 08 00           2879 	ld	hl,#_has_reached + 0
   0611 7E                 2880 	ld	a,(hl) ; 2
   0612 FE 01              2881 	cp	a,#0x01
   0614 C2 19 06           2882 	jp	nz,00128$
   0617 18 03              2883 	jr	00129$
   0619                    2884 00128$:
   0619 C3 A8 06           2885 	jp	00114$
   061C                    2886 00129$:
                           2887 ;	game/main.c 172
                           2888 ; genAssign
                           2889 ; AOP_HL for _has_reached
   061C 21 08 00           2890 	ld	hl,#_has_reached + 0
   061F 36 00              2891 	ld	(hl),#0x00
                           2892 ;	game/main.c 173
                           2893 ; genAssign
                           2894 ; AOP_HL for _player_direction
   0621 21 0F 00           2895 	ld	hl,#_player_direction + 0
   0624 36 02              2896 	ld	(hl),#0x02
   0626 23                 2897 	inc	hl
   0627 36 00              2898 	ld	(hl),#0x00
                           2899 ;	game/main.c 174
                           2900 ; genAssign
                           2901 ; AOP_HL for _requires_scrolling_x
   0629 21 06 00           2902 	ld	hl,#_requires_scrolling_x + 0
   062C 36 01              2903 	ld	(hl),#0x01
                           2904 ;	game/main.c 175
                           2905 ; genAssign
                           2906 ; AOP_HL for _offset_x
   062E 21 01 00           2907 	ld	hl,#_offset_x + 0
   0631 36 02              2908 	ld	(hl),#0x02
                           2909 ;	game/main.c 176
                           2910 ; genCall
   0633 CD 1F 05           2911 	call	_process_player_position
                           2912 ;	game/main.c 178
                           2913 ; genGoto
   0636 C3 A8 06           2914 	jp	00114$
                           2915 ;	game/main.c 188
                           2916 ; genLabel
   0639                    2917 00106$:
                           2918 ;	game/main.c 181
                           2919 ; genCmpEq
                           2920 ; AOP_HL for _has_reached
   0639 21 08 00           2921 	ld	hl,#_has_reached + 0
   063C 7E                 2922 	ld	a,(hl) ; 2
   063D FE 01              2923 	cp	a,#0x01
   063F C2 44 06           2924 	jp	nz,00130$
   0642 18 03              2925 	jr	00131$
   0644                    2926 00130$:
   0644 C3 A8 06           2927 	jp	00114$
   0647                    2928 00131$:
                           2929 ;	game/main.c 182
                           2930 ; genAssign
                           2931 ; AOP_HL for _has_reached
   0647 21 08 00           2932 	ld	hl,#_has_reached + 0
   064A 36 00              2933 	ld	(hl),#0x00
                           2934 ;	game/main.c 183
                           2935 ; genAssign
                           2936 ; AOP_HL for _player_direction
   064C 21 0F 00           2937 	ld	hl,#_player_direction + 0
   064F 36 00              2938 	ld	(hl),#0x00
   0651 23                 2939 	inc	hl
   0652 36 00              2940 	ld	(hl),#0x00
                           2941 ;	game/main.c 184
                           2942 ; genAssign
                           2943 ; AOP_HL for _requires_scrolling_x
   0654 21 06 00           2944 	ld	hl,#_requires_scrolling_x + 0
   0657 36 01              2945 	ld	(hl),#0x01
                           2946 ;	game/main.c 186
                           2947 ; genCall
   0659 CD 1F 05           2948 	call	_process_player_position
                           2949 ;	game/main.c 188
                           2950 ; genGoto
   065C C3 A8 06           2951 	jp	00114$
                           2952 ;	game/main.c 197
                           2953 ; genLabel
   065F                    2954 00109$:
                           2955 ;	game/main.c 191
                           2956 ; genCmpEq
                           2957 ; AOP_HL for _has_reached
   065F 21 08 00           2958 	ld	hl,#_has_reached + 0
   0662 7E                 2959 	ld	a,(hl) ; 2
   0663 FE 01              2960 	cp	a,#0x01
   0665 C2 6A 06           2961 	jp	nz,00132$
   0668 18 03              2962 	jr	00133$
   066A                    2963 00132$:
   066A C3 A8 06           2964 	jp	00114$
   066D                    2965 00133$:
                           2966 ;	game/main.c 192
                           2967 ; genAssign
                           2968 ; AOP_HL for _has_reached
   066D 21 08 00           2969 	ld	hl,#_has_reached + 0
   0670 36 00              2970 	ld	(hl),#0x00
                           2971 ;	game/main.c 193
                           2972 ; genAssign
                           2973 ; AOP_HL for _player_direction
   0672 21 0F 00           2974 	ld	hl,#_player_direction + 0
   0675 36 01              2975 	ld	(hl),#0x01
   0677 23                 2976 	inc	hl
   0678 36 00              2977 	ld	(hl),#0x00
                           2978 ;	game/main.c 194
                           2979 ; genAssign
                           2980 ; AOP_HL for _requires_scrolling_y
   067A 21 07 00           2981 	ld	hl,#_requires_scrolling_y + 0
   067D 36 01              2982 	ld	(hl),#0x01
                           2983 ;	game/main.c 195
                           2984 ; genCall
   067F CD 1F 05           2985 	call	_process_player_position
                           2986 ;	game/main.c 197
                           2987 ; genGoto
   0682 C3 A8 06           2988 	jp	00114$
                           2989 ;	game/main.c 206
                           2990 ; genLabel
   0685                    2991 00112$:
                           2992 ;	game/main.c 200
                           2993 ; genCmpEq
                           2994 ; AOP_HL for _has_reached
   0685 21 08 00           2995 	ld	hl,#_has_reached + 0
   0688 7E                 2996 	ld	a,(hl) ; 2
   0689 FE 01              2997 	cp	a,#0x01
   068B C2 90 06           2998 	jp	nz,00134$
   068E 18 03              2999 	jr	00135$
   0690                    3000 00134$:
   0690 C3 A8 06           3001 	jp	00114$
   0693                    3002 00135$:
                           3003 ;	game/main.c 201
                           3004 ; genAssign
                           3005 ; AOP_HL for _has_reached
   0693 21 08 00           3006 	ld	hl,#_has_reached + 0
   0696 36 00              3007 	ld	(hl),#0x00
                           3008 ;	game/main.c 202
                           3009 ; genAssign
                           3010 ; AOP_HL for _player_direction
   0698 21 0F 00           3011 	ld	hl,#_player_direction + 0
   069B 36 03              3012 	ld	(hl),#0x03
   069D 23                 3013 	inc	hl
   069E 36 00              3014 	ld	(hl),#0x00
                           3015 ;	game/main.c 203
                           3016 ; genAssign
                           3017 ; AOP_HL for _requires_scrolling_y
   06A0 21 07 00           3018 	ld	hl,#_requires_scrolling_y + 0
   06A3 36 01              3019 	ld	(hl),#0x01
                           3020 ;	game/main.c 204
                           3021 ; genCall
   06A5 CD 1F 05           3022 	call	_process_player_position
                           3023 ;	game/main.c 207
                           3024 ; genLabel
   06A8                    3025 00114$:
                           3026 ; genEndFunction
                           3027 	
   06A8 C1                 3028 	pop	bc
   06A9 C9                 3029 	ret
   06AA                    3030 ___process_input_end:
                           3031 ;	game/main.c 210
                           3032 ; genLabel
                           3033 ; genFunction
                           3034 ;	---------------------------------
                           3035 ; Function animate_player
                           3036 ; ---------------------------------
   06AA                    3037 ___animate_player_start:
   06AA                    3038 _animate_player:
   06AA C5                 3039 	push	bc
   06AB E8 FB              3040 	lda	sp,-5(sp)
                           3041 ;	game/main.c 211
                           3042 ; genIpush
   06AD 21 05 00           3043 	ld	hl,#0x0005
   06B0 E5                 3044 	push	hl
                           3045 ; genIpush
                           3046 ; AOP_HL for _frame_counter
   06B1 21 09 00           3047 	ld	hl,#_frame_counter + 0
   06B4 2A                 3048 	ld	a,(hl+)
   06B5 66                 3049 	ld	h,(hl)
   06B6 6F                 3050 	ld	l,a
   06B7 E5                 3051 	push	hl
                           3052 ; genCall
   06B8 CD 00 00           3053 	call	__moduint
   06BB 42                 3054 	ld	b,d
   06BC 4B                 3055 	ld	c,e
   06BD E8 04              3056 	lda	sp,4(sp)
                           3057 ; genCmpEq
   06BF 79                 3058 	ld	a,c
   06C0 B0                 3059 	or	a,b
   06C1 C2 C6 06           3060 	jp	nz,00129$
   06C4 18 03              3061 	jr	00130$
   06C6                    3062 00129$:
   06C6 C3 A4 08           3063 	jp	00116$
   06C9                    3064 00130$:
                           3065 ;	game/main.c 212
                           3066 ; genCmpEq
                           3067 ; AOP_HL for _player_direction
   06C9 21 0F 00           3068 	ld	hl,#_player_direction + 0
   06CC 2A                 3069 	ld	a,(hl+)
   06CD B6                 3070 	or	a,(hl)
   06CE C2 D3 06           3071 	jp	nz,00131$
   06D1 18 03              3072 	jr	00132$
   06D3                    3073 00131$:
   06D3 C3 78 07           3074 	jp	00102$
   06D6                    3075 00132$:
                           3076 ;	game/main.c 213
                           3077 ; genIpush
                           3078 ; AOP_HL for _player_tile
   06D6 21 04 00           3079 	ld	hl,#_player_tile + 0
   06D9 7E                 3080 	ld	a,(hl)
   06DA F5                 3081 	push	af
   06DB 33                 3082 	inc	sp
                           3083 ; genIpush
   06DC 3E 00              3084 	ld	a,#0x00
   06DE F5                 3085 	push	af
   06DF 33                 3086 	inc	sp
                           3087 ; genCall
   06E0 CD 00 00           3088 	call	_set_sprite_tile
   06E3 E8 02              3089 	lda	sp,2(sp)
                           3090 ;	game/main.c 214
                           3091 ; genPlus
                           3092 ; AOP_HL for _player_tile
                           3093 ; genPlusIncr
                           3094 ;	genPlusIncr failed
   06E5 21 04 00           3095 	ld	hl,#_player_tile + 0
   06E8 7E                 3096 	ld	a,(hl)
   06E9 C6 08              3097 	add	a,#0x08
   06EB 4F                 3098 	ld	c,a
                           3099 ; genIpush
   06EC 79                 3100 	ld	a,c
   06ED F5                 3101 	push	af
   06EE 33                 3102 	inc	sp
                           3103 ; genIpush
   06EF 3E 01              3104 	ld	a,#0x01
   06F1 F5                 3105 	push	af
   06F2 33                 3106 	inc	sp
                           3107 ; genCall
   06F3 CD 00 00           3108 	call	_set_sprite_tile
   06F6 E8 02              3109 	lda	sp,2(sp)
                           3110 ;	game/main.c 215
                           3111 ; genIpush
   06F8 3E 00              3112 	ld	a,#0x00
   06FA F5                 3113 	push	af
   06FB 33                 3114 	inc	sp
                           3115 ; genCall
   06FC CD 00 00           3116 	call	_get_sprite_prop
   06FF 4B                 3117 	ld	c,e
   0700 E8 01              3118 	lda	sp,1(sp)
                           3119 ; genAnd
   0702 79                 3120 	ld	a,c
   0703 E6 DF              3121 	and	a,#0xDF
   0705 4F                 3122 	ld	c,a
                           3123 ; genIpush
   0706 79                 3124 	ld	a,c
   0707 F5                 3125 	push	af
   0708 33                 3126 	inc	sp
                           3127 ; genIpush
   0709 3E 00              3128 	ld	a,#0x00
   070B F5                 3129 	push	af
   070C 33                 3130 	inc	sp
                           3131 ; genCall
   070D CD 00 00           3132 	call	_set_sprite_prop
   0710 E8 02              3133 	lda	sp,2(sp)
                           3134 ;	game/main.c 216
                           3135 ; genIpush
   0712 3E 01              3136 	ld	a,#0x01
   0714 F5                 3137 	push	af
   0715 33                 3138 	inc	sp
                           3139 ; genCall
   0716 CD 00 00           3140 	call	_get_sprite_prop
   0719 4B                 3141 	ld	c,e
   071A E8 01              3142 	lda	sp,1(sp)
                           3143 ; genAnd
   071C 79                 3144 	ld	a,c
   071D E6 DF              3145 	and	a,#0xDF
   071F 4F                 3146 	ld	c,a
                           3147 ; genIpush
   0720 79                 3148 	ld	a,c
   0721 F5                 3149 	push	af
   0722 33                 3150 	inc	sp
                           3151 ; genIpush
   0723 3E 01              3152 	ld	a,#0x01
   0725 F5                 3153 	push	af
   0726 33                 3154 	inc	sp
                           3155 ; genCall
   0727 CD 00 00           3156 	call	_set_sprite_prop
   072A E8 02              3157 	lda	sp,2(sp)
                           3158 ;	game/main.c 217
                           3159 ; genIpush
   072C 3E 02              3160 	ld	a,#0x02
   072E F5                 3161 	push	af
   072F 33                 3162 	inc	sp
                           3163 ; genCall
   0730 CD 00 00           3164 	call	_get_sprite_prop
   0733 4B                 3165 	ld	c,e
   0734 E8 01              3166 	lda	sp,1(sp)
                           3167 ; genAnd
   0736 79                 3168 	ld	a,c
   0737 E6 DF              3169 	and	a,#0xDF
   0739 4F                 3170 	ld	c,a
                           3171 ; genIpush
   073A 79                 3172 	ld	a,c
   073B F5                 3173 	push	af
   073C 33                 3174 	inc	sp
                           3175 ; genIpush
   073D 3E 02              3176 	ld	a,#0x02
   073F F5                 3177 	push	af
   0740 33                 3178 	inc	sp
                           3179 ; genCall
   0741 CD 00 00           3180 	call	_set_sprite_prop
   0744 E8 02              3181 	lda	sp,2(sp)
                           3182 ;	game/main.c 218
                           3183 ; genMinus
                           3184 ; AOP_HL for _player_y
   0746 21 A5 00           3185 	ld	hl,#_player_y + 0
   0749 7E                 3186 	ld	a,(hl)
   074A C6 FC              3187 	add	a,#0xFC
   074C 4F                 3188 	ld	c,a
   074D 23                 3189 	inc	hl
   074E 7E                 3190 	ld	a,(hl)
   074F CE FF              3191 	adc	a,#0xFF
   0751 47                 3192 	ld	b,a
                           3193 ; genCast
                           3194 ; AOP_STK for _animate_player_sloc0_1_0
   0752 F8 04              3195 	lda	hl,4(sp)
   0754 71                 3196 	ld	(hl),c
                           3197 ; genPlus
                           3198 ; AOP_HL for _player_x
                           3199 ; AOP_STK for _animate_player_sloc1_1_0
                           3200 ; genPlusIncr
                           3201 ;	genPlusIncr failed
   0755 21 A3 00           3202 	ld	hl,#_player_x + 0
   0758 5E                 3203 	ld	e,(hl)
   0759 23                 3204 	inc	hl
   075A 56                 3205 	ld	d,(hl)
   075B 21 03 00           3206 	ld	hl,#0x0003
   075E 19                 3207 	add	hl,de
   075F 7D                 3208 	ld	a,l
   0760 54                 3209 	ld	d,h
   0761 F8 02              3210 	lda	hl,2(sp)
   0763 22                 3211 	ld	(hl+),a
   0764 72                 3212 	ld	(hl),d
                           3213 ; genCast
                           3214 ; AOP_STK for _animate_player_sloc1_1_0
   0765 2B                 3215 	dec	hl
   0766 4E                 3216 	ld	c,(hl)
                           3217 ; genIpush
                           3218 ; AOP_STK for _animate_player_sloc0_1_0
   0767 23                 3219 	inc	hl
   0768 23                 3220 	inc	hl
   0769 7E                 3221 	ld	a,(hl)
   076A F5                 3222 	push	af
   076B 33                 3223 	inc	sp
                           3224 ; genIpush
   076C 79                 3225 	ld	a,c
   076D F5                 3226 	push	af
   076E 33                 3227 	inc	sp
                           3228 ; genIpush
   076F 3E 02              3229 	ld	a,#0x02
   0771 F5                 3230 	push	af
   0772 33                 3231 	inc	sp
                           3232 ; genCall
   0773 CD 00 00           3233 	call	_move_sprite
   0776 E8 03              3234 	lda	sp,3(sp)
                           3235 ; genLabel
   0778                    3236 00102$:
                           3237 ;	game/main.c 220
                           3238 ; genCmpEq
                           3239 ; AOP_HL for _player_direction
   0778 21 0F 00           3240 	ld	hl,#_player_direction + 0
   077B 7E                 3241 	ld	a,(hl) ; 2
   077C FE 02              3242 	cp	a,#0x02
   077E C2 89 07           3243 	jp	nz,00133$
   0781 23                 3244 	inc	hl
   0782 7E                 3245 	ld	a,(hl) ; 2
                           3246 ; Rule 3
   0783 B7                 3247 	or	a,a
   0784 C2 89 07           3248 	jp	nz,00133$
   0787 18 03              3249 	jr	00134$
   0789                    3250 00133$:
   0789 C3 0B 08           3251 	jp	00104$
   078C                    3252 00134$:
                           3253 ;	game/main.c 221
                           3254 ; genIpush
                           3255 ; AOP_HL for _player_tile
   078C 21 04 00           3256 	ld	hl,#_player_tile + 0
   078F 7E                 3257 	ld	a,(hl)
   0790 F5                 3258 	push	af
   0791 33                 3259 	inc	sp
                           3260 ; genIpush
   0792 3E 01              3261 	ld	a,#0x01
   0794 F5                 3262 	push	af
   0795 33                 3263 	inc	sp
                           3264 ; genCall
   0796 CD 00 00           3265 	call	_set_sprite_tile
   0799 E8 02              3266 	lda	sp,2(sp)
                           3267 ;	game/main.c 222
                           3268 ; genPlus
                           3269 ; AOP_HL for _player_tile
                           3270 ; genPlusIncr
                           3271 ;	genPlusIncr failed
   079B 21 04 00           3272 	ld	hl,#_player_tile + 0
   079E 7E                 3273 	ld	a,(hl)
   079F C6 08              3274 	add	a,#0x08
   07A1 4F                 3275 	ld	c,a
                           3276 ; genIpush
   07A2 79                 3277 	ld	a,c
   07A3 F5                 3278 	push	af
   07A4 33                 3279 	inc	sp
                           3280 ; genIpush
   07A5 3E 00              3281 	ld	a,#0x00
   07A7 F5                 3282 	push	af
   07A8 33                 3283 	inc	sp
                           3284 ; genCall
   07A9 CD 00 00           3285 	call	_set_sprite_tile
   07AC E8 02              3286 	lda	sp,2(sp)
                           3287 ;	game/main.c 223
                           3288 ; genIpush
   07AE 3E 20              3289 	ld	a,#0x20
   07B0 F5                 3290 	push	af
   07B1 33                 3291 	inc	sp
                           3292 ; genIpush
   07B2 3E 00              3293 	ld	a,#0x00
   07B4 F5                 3294 	push	af
   07B5 33                 3295 	inc	sp
                           3296 ; genCall
   07B6 CD 00 00           3297 	call	_set_sprite_prop
   07B9 E8 02              3298 	lda	sp,2(sp)
                           3299 ;	game/main.c 224
                           3300 ; genIpush
   07BB 3E 20              3301 	ld	a,#0x20
   07BD F5                 3302 	push	af
   07BE 33                 3303 	inc	sp
                           3304 ; genIpush
   07BF 3E 01              3305 	ld	a,#0x01
   07C1 F5                 3306 	push	af
   07C2 33                 3307 	inc	sp
                           3308 ; genCall
   07C3 CD 00 00           3309 	call	_set_sprite_prop
   07C6 E8 02              3310 	lda	sp,2(sp)
                           3311 ;	game/main.c 225
                           3312 ; genIpush
   07C8 3E 20              3313 	ld	a,#0x20
   07CA F5                 3314 	push	af
   07CB 33                 3315 	inc	sp
                           3316 ; genIpush
   07CC 3E 02              3317 	ld	a,#0x02
   07CE F5                 3318 	push	af
   07CF 33                 3319 	inc	sp
                           3320 ; genCall
   07D0 CD 00 00           3321 	call	_set_sprite_prop
   07D3 E8 02              3322 	lda	sp,2(sp)
                           3323 ;	game/main.c 226
                           3324 ; genMinus
                           3325 ; AOP_HL for _player_y
                           3326 ; AOP_STK for _animate_player_sloc1_1_0
   07D5 21 A5 00           3327 	ld	hl,#_player_y + 0
   07D8 5E                 3328 	ld	e,(hl)
   07D9 23                 3329 	inc	hl
   07DA 56                 3330 	ld	d,(hl)
   07DB 21 04 00           3331 	ld	hl,#0x0004
   07DE 7B                 3332 	ld	a,e
   07DF 95                 3333 	sub	a,l
   07E0 5F                 3334 	ld	e,a
   07E1 7A                 3335 	ld	a,d
   07E2 9C                 3336 	sbc	a,h
   07E3 F8 03              3337 	lda	hl,3(sp)
   07E5 77                 3338 	ld	(hl),a
   07E6 2B                 3339 	dec	hl
   07E7 73                 3340 	ld	(hl),e
                           3341 ; genCast
                           3342 ; AOP_STK for _animate_player_sloc1_1_0
                           3343 ; genPlus
                           3344 ; AOP_HL for _player_x
                           3345 ; AOP_STK for _animate_player_sloc2_1_0
                           3346 ; genPlusIncr
                           3347 ;	genPlusIncr failed
   07E8 21 A3 00           3348 	ld	hl,#_player_x + 0
   07EB 5E                 3349 	ld	e,(hl)
   07EC 23                 3350 	inc	hl
   07ED 56                 3351 	ld	d,(hl)
   07EE 21 06 00           3352 	ld	hl,#0x0006
   07F1 19                 3353 	add	hl,de
   07F2 7D                 3354 	ld	a,l
   07F3 54                 3355 	ld	d,h
   07F4 F8 00              3356 	lda	hl,0(sp)
   07F6 22                 3357 	ld	(hl+),a
   07F7 72                 3358 	ld	(hl),d
                           3359 ; genCast
                           3360 ; AOP_STK for _animate_player_sloc2_1_0
   07F8 2B                 3361 	dec	hl
   07F9 4E                 3362 	ld	c,(hl)
                           3363 ; genIpush
                           3364 ; AOP_STK for _animate_player_sloc1_1_0
   07FA 23                 3365 	inc	hl
   07FB 23                 3366 	inc	hl
   07FC 7E                 3367 	ld	a,(hl)
   07FD F5                 3368 	push	af
   07FE 33                 3369 	inc	sp
                           3370 ; genIpush
   07FF 79                 3371 	ld	a,c
   0800 F5                 3372 	push	af
   0801 33                 3373 	inc	sp
                           3374 ; genIpush
   0802 3E 02              3375 	ld	a,#0x02
   0804 F5                 3376 	push	af
   0805 33                 3377 	inc	sp
                           3378 ; genCall
   0806 CD 00 00           3379 	call	_move_sprite
   0809 E8 03              3380 	lda	sp,3(sp)
                           3381 ; genLabel
   080B                    3382 00104$:
                           3383 ;	game/main.c 229
                           3384 ; genCmpEq
                           3385 ; AOP_HL for _player_tile
   080B 21 04 00           3386 	ld	hl,#_player_tile + 0
   080E 7E                 3387 	ld	a,(hl)
   080F B7                 3388 	or	a,a
                           3389 ; Rule 5
   0810 CA 21 08           3390 	jp	z,00105$
   0813                    3391 00135$:
                           3392 ; genCmpEq
                           3393 ; AOP_HL for _player_tile
   0813 21 04 00           3394 	ld	hl,#_player_tile + 0
   0816 7E                 3395 	ld	a,(hl) ; 2
   0817 FE 04              3396 	cp	a,#0x04
   0819 C2 1E 08           3397 	jp	nz,00136$
   081C 18 03              3398 	jr	00137$
   081E                    3399 00136$:
   081E C3 31 08           3400 	jp	00106$
   0821                    3401 00137$:
                           3402 ; genLabel
   0821                    3403 00105$:
                           3404 ;	game/main.c 230
                           3405 ; genIpush
   0821 3E 12              3406 	ld	a,#0x12
   0823 F5                 3407 	push	af
   0824 33                 3408 	inc	sp
                           3409 ; genIpush
   0825 3E 02              3410 	ld	a,#0x02
   0827 F5                 3411 	push	af
   0828 33                 3412 	inc	sp
                           3413 ; genCall
   0829 CD 00 00           3414 	call	_set_sprite_tile
   082C E8 02              3415 	lda	sp,2(sp)
                           3416 ; genGoto
   082E C3 3E 08           3417 	jp	00107$
                           3418 ; genLabel
   0831                    3419 00106$:
                           3420 ;	game/main.c 233
                           3421 ; genIpush
   0831 3E 10              3422 	ld	a,#0x10
   0833 F5                 3423 	push	af
   0834 33                 3424 	inc	sp
                           3425 ; genIpush
   0835 3E 02              3426 	ld	a,#0x02
   0837 F5                 3427 	push	af
   0838 33                 3428 	inc	sp
                           3429 ; genCall
   0839 CD 00 00           3430 	call	_set_sprite_tile
   083C E8 02              3431 	lda	sp,2(sp)
                           3432 ; genLabel
   083E                    3433 00107$:
                           3434 ;	game/main.c 236
                           3435 ; genCmpGt
                           3436 ; AOP_HL for _player_tile
   083E AF                 3437 	xor	a,a
   083F 3E 04              3438 	ld	a,#0x04
   0841 21 04 00           3439 	ld	hl,#_player_tile + 0
   0844 9E                 3440 	sbc	a,(hl) ; 2
   0845 DA 4D 08           3441 	jp	c,00110$
                           3442 ;	game/main.c 237
                           3443 ; genPlus
                           3444 ; AOP_HL for _player_tile
                           3445 ; genPlusIncr
   0848 34                 3446 	inc	(hl)
   0849 34                 3447 	inc	(hl)
                           3448 ; genGoto
   084A C3 52 08           3449 	jp	00111$
                           3450 ; genLabel
   084D                    3451 00110$:
                           3452 ;	game/main.c 240
                           3453 ; genAssign
                           3454 ; AOP_HL for _player_tile
   084D 21 04 00           3455 	ld	hl,#_player_tile + 0
   0850 36 00              3456 	ld	(hl),#0x00
                           3457 ; genLabel
   0852                    3458 00111$:
                           3459 ;	game/main.c 243
                           3460 ; genCmpGt
                           3461 ; AOP_HL for _hammer_tile
   0852 AF                 3462 	xor	a,a
   0853 3E 22              3463 	ld	a,#0x22
   0855 21 03 00           3464 	ld	hl,#_hammer_tile + 0
   0858 9E                 3465 	sbc	a,(hl) ; 2
   0859 DA 85 08           3466 	jp	c,00113$
                           3467 ;	game/main.c 244
                           3468 ; genIpush
                           3469 ; AOP_HL for _hammer_tile
   085C 7E                 3470 	ld	a,(hl)
   085D F5                 3471 	push	af
   085E 33                 3472 	inc	sp
                           3473 ; genIpush
   085F 3E 03              3474 	ld	a,#0x03
   0861 F5                 3475 	push	af
   0862 33                 3476 	inc	sp
                           3477 ; genCall
   0863 CD 00 00           3478 	call	_set_sprite_tile
   0866 E8 02              3479 	lda	sp,2(sp)
                           3480 ;	game/main.c 245
                           3481 ; genPlus
                           3482 ; AOP_HL for _hammer_tile
                           3483 ; genPlusIncr
                           3484 ;	genPlusIncr failed
   0868 21 03 00           3485 	ld	hl,#_hammer_tile + 0
   086B 7E                 3486 	ld	a,(hl)
   086C C6 02              3487 	add	a,#0x02
   086E 4F                 3488 	ld	c,a
                           3489 ; genIpush
   086F 79                 3490 	ld	a,c
   0870 F5                 3491 	push	af
   0871 33                 3492 	inc	sp
                           3493 ; genIpush
   0872 3E 04              3494 	ld	a,#0x04
   0874 F5                 3495 	push	af
   0875 33                 3496 	inc	sp
                           3497 ; genCall
   0876 CD 00 00           3498 	call	_set_sprite_tile
   0879 E8 02              3499 	lda	sp,2(sp)
                           3500 ;	game/main.c 246
                           3501 ; genPlus
                           3502 ; AOP_HL for _hammer_tile
                           3503 ; genPlusIncr
   087B 21 03 00           3504 	ld	hl,#_hammer_tile + 0
   087E 34                 3505 	inc	(hl)
   087F 34                 3506 	inc	(hl)
   0880 34                 3507 	inc	(hl)
   0881 34                 3508 	inc	(hl)
                           3509 ; genGoto
   0882 C3 A4 08           3510 	jp	00116$
                           3511 ; genLabel
   0885                    3512 00113$:
                           3513 ;	game/main.c 249
                           3514 ; genIpush
   0885 3E 14              3515 	ld	a,#0x14
   0887 F5                 3516 	push	af
   0888 33                 3517 	inc	sp
                           3518 ; genIpush
   0889 3E 03              3519 	ld	a,#0x03
   088B F5                 3520 	push	af
   088C 33                 3521 	inc	sp
                           3522 ; genCall
   088D CD 00 00           3523 	call	_set_sprite_tile
   0890 E8 02              3524 	lda	sp,2(sp)
                           3525 ;	game/main.c 250
                           3526 ; genIpush
   0892 3E 16              3527 	ld	a,#0x16
   0894 F5                 3528 	push	af
   0895 33                 3529 	inc	sp
                           3530 ; genIpush
   0896 3E 04              3531 	ld	a,#0x04
   0898 F5                 3532 	push	af
   0899 33                 3533 	inc	sp
                           3534 ; genCall
   089A CD 00 00           3535 	call	_set_sprite_tile
   089D E8 02              3536 	lda	sp,2(sp)
                           3537 ;	game/main.c 251
                           3538 ; genAssign
                           3539 ; AOP_HL for _hammer_tile
   089F 21 03 00           3540 	ld	hl,#_hammer_tile + 0
   08A2 36 18              3541 	ld	(hl),#0x18
                           3542 ; genLabel
   08A4                    3543 00116$:
                           3544 ;	game/main.c 254
                           3545 ; genCmpGt
                           3546 ; AOP_HL for _frame_counter
   08A4 21 09 00           3547 	ld	hl,#_frame_counter + 0
   08A7 5E                 3548 	ld	e,(hl)
   08A8 23                 3549 	inc	hl
   08A9 56                 3550 	ld	d,(hl)
   08AA 21 FB FF           3551 	ld	hl,#0xFFFB
   08AD 19                 3552 	add	hl,de
   08AE DA BC 08           3553 	jp	c,00118$
                           3554 ;	game/main.c 255
                           3555 ; genPlus
                           3556 ; AOP_HL for _frame_counter
                           3557 ; genPlusIncr
   08B1 21 09 00           3558 	ld	hl,#_frame_counter + 0
   08B4 34                 3559 	inc	(hl)
   08B5 20 02              3560 	jr	nz,00138$
   08B7 23                 3561 	inc	hl
   08B8 34                 3562 	inc	(hl)
   08B9                    3563 00138$:
                           3564 ; genGoto
   08B9 C3 C4 08           3565 	jp	00120$
                           3566 ; genLabel
   08BC                    3567 00118$:
                           3568 ;	game/main.c 258
                           3569 ; genAssign
                           3570 ; AOP_HL for _frame_counter
   08BC 21 09 00           3571 	ld	hl,#_frame_counter + 0
   08BF 36 01              3572 	ld	(hl),#0x01
   08C1 23                 3573 	inc	hl
   08C2 36 00              3574 	ld	(hl),#0x00
                           3575 ; genLabel
   08C4                    3576 00120$:
                           3577 ; genEndFunction
   08C4 E8 05              3578 	lda	sp,5(sp)
   08C6 C1                 3579 	pop	bc
   08C7 C9                 3580 	ret
   08C8                    3581 ___animate_player_end:
                           3582 ;	game/main.c 261
                           3583 ; genLabel
                           3584 ; genFunction
                           3585 ;	---------------------------------
                           3586 ; Function init_music
                           3587 ; ---------------------------------
   08C8                    3588 ___init_music_start:
   08C8                    3589 _init_music:
                           3590 	
                           3591 ;	game/main.c 262
                           3592 ; genCall
   08C8 CD 00 00           3593 	call	_disable_interrupts
                           3594 ;	game/main.c 263
                           3595 ; genIpush
   08CB 3E 06              3596 	ld	a,#0x06
   08CD F5                 3597 	push	af
   08CE 33                 3598 	inc	sp
                           3599 ; genIpush
   08CF 3E 02              3600 	ld	a,#0x02
   08D1 F5                 3601 	push	af
   08D2 33                 3602 	inc	sp
                           3603 ; genIpush
   08D3 21 00 00           3604 	ld	hl,#_song_Data + 0
   08D6 E5                 3605 	push	hl
                           3606 ; genCall
   08D7 CD 00 00           3607 	call	_gbt_play
   08DA E8 04              3608 	lda	sp,4(sp)
                           3609 ;	game/main.c 264
                           3610 ; genIpush
   08DC 3E 01              3611 	ld	a,#0x01
   08DE F5                 3612 	push	af
   08DF 33                 3613 	inc	sp
                           3614 ; genCall
   08E0 CD 00 00           3615 	call	_gbt_loop
   08E3 E8 01              3616 	lda	sp,1(sp)
                           3617 ;	game/main.c 265
                           3618 ; genIpush
   08E5 3E 01              3619 	ld	a,#0x01
   08E7 F5                 3620 	push	af
   08E8 33                 3621 	inc	sp
                           3622 ; genCall
   08E9 CD 00 00           3623 	call	_set_interrupts
   08EC E8 01              3624 	lda	sp,1(sp)
                           3625 ;	game/main.c 266
                           3626 ; genCall
   08EE CD 00 00           3627 	call	_enable_interrupts
                           3628 ; genLabel
   08F1                    3629 00101$:
                           3630 ; genEndFunction
                           3631 	
   08F1 C9                 3632 	ret
   08F2                    3633 ___init_music_end:
                           3634 ;	game/main.c 269
                           3635 ; genLabel
                           3636 ; genFunction
                           3637 ;	---------------------------------
                           3638 ; Function init
                           3639 ; ---------------------------------
   08F2                    3640 ___init_start:
   08F2                    3641 _init:
   08F2 C5                 3642 	push	bc
   08F3 E8 FB              3643 	lda	sp,-5(sp)
                           3644 ;	game/main.c 271
                           3645 ; genAssign
   08F5 11 00 20           3646 	ld	de,#0x2000
                           3647 ; genAssign (pointer)
   08F8 3E 03              3648 	ld	a,#0x03
   08FA 12                 3649 	ld	(de),a
                           3650 ;	game/main.c 272
                           3651 ; genIpush
   08FB 21 00 00           3652 	ld	hl,#_BgTiles + 0
   08FE E5                 3653 	push	hl
                           3654 ; genIpush
   08FF 3E 14              3655 	ld	a,#0x14
   0901 F5                 3656 	push	af
   0902 33                 3657 	inc	sp
                           3658 ; genIpush
   0903 3E 00              3659 	ld	a,#0x00
   0905 F5                 3660 	push	af
   0906 33                 3661 	inc	sp
                           3662 ; genCall
   0907 CD 00 00           3663 	call	_set_bkg_data
   090A E8 04              3664 	lda	sp,4(sp)
                           3665 ;	game/main.c 273
                           3666 ; genIpush
   090C 21 00 00           3667 	ld	hl,#_Bg + 0
   090F E5                 3668 	push	hl
                           3669 ; genIpush
   0910 3E 20              3670 	ld	a,#0x20
   0912 F5                 3671 	push	af
   0913 33                 3672 	inc	sp
                           3673 ; genIpush
   0914 3E 20              3674 	ld	a,#0x20
   0916 F5                 3675 	push	af
   0917 33                 3676 	inc	sp
                           3677 ; genIpush
   0918 3E 00              3678 	ld	a,#0x00
   091A F5                 3679 	push	af
   091B 33                 3680 	inc	sp
                           3681 ; genIpush
   091C 3E 00              3682 	ld	a,#0x00
   091E F5                 3683 	push	af
   091F 33                 3684 	inc	sp
                           3685 ; genCall
   0920 CD 00 00           3686 	call	_set_bkg_tiles
   0923 E8 06              3687 	lda	sp,6(sp)
                           3688 ;	game/main.c 274
                           3689 ; genOr
                           3690 ; AOP_SFR for _LCDC_REG
                           3691 ; Type res[4] = l[4]&r[1]
                           3692 ; Size res[1] = l[1]&r[1]
   0925 F0 00              3693 	ldh	a,(_LCDC_REG+0) ; x
   0927 F6 04              3694 	or	a,#0x04
   0929 E0 00              3695 	ldh	(_LCDC_REG+0),a
                           3696 ;	game/main.c 277
                           3697 ; genIpush
   092B 21 00 00           3698 	ld	hl,#_Player + 0
   092E E5                 3699 	push	hl
                           3700 ; genIpush
   092F 3E 14              3701 	ld	a,#0x14
   0931 F5                 3702 	push	af
   0932 33                 3703 	inc	sp
                           3704 ; genIpush
   0933 3E 00              3705 	ld	a,#0x00
   0935 F5                 3706 	push	af
   0936 33                 3707 	inc	sp
                           3708 ; genCall
   0937 CD 00 00           3709 	call	_set_sprite_data
   093A E8 04              3710 	lda	sp,4(sp)
                           3711 ;	game/main.c 278
                           3712 ; genCast
                           3713 ; AOP_HL for _player_y
                           3714 ; AOP_STK for _init_sloc0_1_0
   093C 21 A5 00           3715 	ld	hl,#_player_y + 0
   093F 7E                 3716 	ld	a,(hl)
   0940 F8 04              3717 	lda	hl,4(sp)
   0942 77                 3718 	ld	(hl),a
                           3719 ; genCast
                           3720 ; AOP_HL for _player_x
   0943 21 A3 00           3721 	ld	hl,#_player_x + 0
   0946 46                 3722 	ld	b,(hl)
                           3723 ; genIpush
                           3724 ; AOP_STK for _init_sloc0_1_0
   0947 F8 04              3725 	lda	hl,4(sp)
   0949 7E                 3726 	ld	a,(hl)
   094A F5                 3727 	push	af
   094B 33                 3728 	inc	sp
                           3729 ; genIpush
   094C 78                 3730 	ld	a,b
   094D F5                 3731 	push	af
   094E 33                 3732 	inc	sp
                           3733 ; genIpush
   094F 3E 00              3734 	ld	a,#0x00
   0951 F5                 3735 	push	af
   0952 33                 3736 	inc	sp
                           3737 ; genCall
   0953 CD 00 00           3738 	call	_move_sprite
   0956 E8 03              3739 	lda	sp,3(sp)
                           3740 ;	game/main.c 279
                           3741 ; genPlus
                           3742 ; AOP_HL for _player_x
                           3743 ; genPlusIncr
                           3744 ;	genPlusIncr failed
   0958 21 A3 00           3745 	ld	hl,#_player_x + 0
   095B 7E                 3746 	ld	a,(hl)
   095C C6 08              3747 	add	a,#0x08
   095E 47                 3748 	ld	b,a
   095F 23                 3749 	inc	hl
   0960 7E                 3750 	ld	a,(hl)
   0961 CE 00              3751 	adc	a,#0x00
   0963 4F                 3752 	ld	c,a
                           3753 ; genCast
                           3754 ; Removed redundent load
                           3755 ; genIpush
                           3756 ; AOP_STK for _init_sloc0_1_0
   0964 F8 04              3757 	lda	hl,4(sp)
   0966 7E                 3758 	ld	a,(hl)
   0967 F5                 3759 	push	af
   0968 33                 3760 	inc	sp
                           3761 ; genIpush
   0969 78                 3762 	ld	a,b
   096A F5                 3763 	push	af
   096B 33                 3764 	inc	sp
                           3765 ; genIpush
   096C 3E 01              3766 	ld	a,#0x01
   096E F5                 3767 	push	af
   096F 33                 3768 	inc	sp
                           3769 ; genCall
   0970 CD 00 00           3770 	call	_move_sprite
   0973 E8 03              3771 	lda	sp,3(sp)
                           3772 ;	game/main.c 280
                           3773 ; genMinus
                           3774 ; AOP_HL for _player_y
                           3775 ; AOP_STK for _init_sloc1_1_0
   0975 21 A5 00           3776 	ld	hl,#_player_y + 0
   0978 5E                 3777 	ld	e,(hl)
   0979 23                 3778 	inc	hl
   097A 56                 3779 	ld	d,(hl)
   097B 21 04 00           3780 	ld	hl,#0x0004
   097E 7B                 3781 	ld	a,e
   097F 95                 3782 	sub	a,l
   0980 5F                 3783 	ld	e,a
   0981 7A                 3784 	ld	a,d
   0982 9C                 3785 	sbc	a,h
   0983 F8 03              3786 	lda	hl,3(sp)
   0985 77                 3787 	ld	(hl),a
   0986 2B                 3788 	dec	hl
   0987 73                 3789 	ld	(hl),e
                           3790 ; genCast
                           3791 ; AOP_STK for _init_sloc1_1_0
                           3792 ; genPlus
                           3793 ; AOP_HL for _player_x
                           3794 ; AOP_STK for _init_sloc2_1_0
                           3795 ; genPlusIncr
                           3796 ;	genPlusIncr failed
   0988 21 A3 00           3797 	ld	hl,#_player_x + 0
   098B 5E                 3798 	ld	e,(hl)
   098C 23                 3799 	inc	hl
   098D 56                 3800 	ld	d,(hl)
   098E 21 06 00           3801 	ld	hl,#0x0006
   0991 19                 3802 	add	hl,de
   0992 7D                 3803 	ld	a,l
   0993 54                 3804 	ld	d,h
   0994 F8 00              3805 	lda	hl,0(sp)
   0996 22                 3806 	ld	(hl+),a
   0997 72                 3807 	ld	(hl),d
                           3808 ; genCast
                           3809 ; AOP_STK for _init_sloc2_1_0
   0998 2B                 3810 	dec	hl
   0999 46                 3811 	ld	b,(hl)
                           3812 ; genIpush
                           3813 ; AOP_STK for _init_sloc1_1_0
   099A 23                 3814 	inc	hl
   099B 23                 3815 	inc	hl
   099C 7E                 3816 	ld	a,(hl)
   099D F5                 3817 	push	af
   099E 33                 3818 	inc	sp
                           3819 ; genIpush
   099F 78                 3820 	ld	a,b
   09A0 F5                 3821 	push	af
   09A1 33                 3822 	inc	sp
                           3823 ; genIpush
   09A2 3E 02              3824 	ld	a,#0x02
   09A4 F5                 3825 	push	af
   09A5 33                 3826 	inc	sp
                           3827 ; genCall
   09A6 CD 00 00           3828 	call	_move_sprite
   09A9 E8 03              3829 	lda	sp,3(sp)
                           3830 ;	game/main.c 281
                           3831 ; genIpush
   09AB 3E 20              3832 	ld	a,#0x20
   09AD F5                 3833 	push	af
   09AE 33                 3834 	inc	sp
                           3835 ; genIpush
   09AF 3E 00              3836 	ld	a,#0x00
   09B1 F5                 3837 	push	af
   09B2 33                 3838 	inc	sp
                           3839 ; genCall
   09B3 CD 00 00           3840 	call	_set_sprite_prop
   09B6 E8 02              3841 	lda	sp,2(sp)
                           3842 ;	game/main.c 282
                           3843 ; genIpush
   09B8 3E 20              3844 	ld	a,#0x20
   09BA F5                 3845 	push	af
   09BB 33                 3846 	inc	sp
                           3847 ; genIpush
   09BC 3E 01              3848 	ld	a,#0x01
   09BE F5                 3849 	push	af
   09BF 33                 3850 	inc	sp
                           3851 ; genCall
   09C0 CD 00 00           3852 	call	_set_sprite_prop
   09C3 E8 02              3853 	lda	sp,2(sp)
                           3854 ;	game/main.c 283
                           3855 ; genIpush
   09C5 3E 20              3856 	ld	a,#0x20
   09C7 F5                 3857 	push	af
   09C8 33                 3858 	inc	sp
                           3859 ; genIpush
   09C9 3E 02              3860 	ld	a,#0x02
   09CB F5                 3861 	push	af
   09CC 33                 3862 	inc	sp
                           3863 ; genCall
   09CD CD 00 00           3864 	call	_set_sprite_prop
   09D0 E8 02              3865 	lda	sp,2(sp)
                           3866 ;	game/main.c 286
                           3867 ; genIpush
   09D2 21 00 00           3868 	ld	hl,#_Hammer + 0
   09D5 E5                 3869 	push	hl
                           3870 ; genIpush
   09D6 3E 1E              3871 	ld	a,#0x1E
   09D8 F5                 3872 	push	af
   09D9 33                 3873 	inc	sp
                           3874 ; genIpush
   09DA 3E 14              3875 	ld	a,#0x14
   09DC F5                 3876 	push	af
   09DD 33                 3877 	inc	sp
                           3878 ; genCall
   09DE CD 00 00           3879 	call	_set_sprite_data
   09E1 E8 04              3880 	lda	sp,4(sp)
                           3881 ;	game/main.c 287
                           3882 ; genIpush
   09E3 3E 14              3883 	ld	a,#0x14
   09E5 F5                 3884 	push	af
   09E6 33                 3885 	inc	sp
                           3886 ; genIpush
   09E7 3E 03              3887 	ld	a,#0x03
   09E9 F5                 3888 	push	af
   09EA 33                 3889 	inc	sp
                           3890 ; genCall
   09EB CD 00 00           3891 	call	_set_sprite_tile
   09EE E8 02              3892 	lda	sp,2(sp)
                           3893 ;	game/main.c 288
                           3894 ; genIpush
   09F0 3E 16              3895 	ld	a,#0x16
   09F2 F5                 3896 	push	af
   09F3 33                 3897 	inc	sp
                           3898 ; genIpush
   09F4 3E 04              3899 	ld	a,#0x04
   09F6 F5                 3900 	push	af
   09F7 33                 3901 	inc	sp
                           3902 ; genCall
   09F8 CD 00 00           3903 	call	_set_sprite_tile
   09FB E8 02              3904 	lda	sp,2(sp)
                           3905 ;	game/main.c 289
                           3906 ; genIpush
   09FD 3E 86              3907 	ld	a,#0x86
   09FF F5                 3908 	push	af
   0A00 33                 3909 	inc	sp
                           3910 ; genIpush
   0A01 3E 8F              3911 	ld	a,#0x8F
   0A03 F5                 3912 	push	af
   0A04 33                 3913 	inc	sp
                           3914 ; genIpush
   0A05 3E 03              3915 	ld	a,#0x03
   0A07 F5                 3916 	push	af
   0A08 33                 3917 	inc	sp
                           3918 ; genCall
   0A09 CD 00 00           3919 	call	_move_sprite
   0A0C E8 03              3920 	lda	sp,3(sp)
                           3921 ;	game/main.c 290
                           3922 ; genIpush
   0A0E 3E 86              3923 	ld	a,#0x86
   0A10 F5                 3924 	push	af
   0A11 33                 3925 	inc	sp
                           3926 ; genIpush
   0A12 3E 97              3927 	ld	a,#0x97
   0A14 F5                 3928 	push	af
   0A15 33                 3929 	inc	sp
                           3930 ; genIpush
   0A16 3E 04              3931 	ld	a,#0x04
   0A18 F5                 3932 	push	af
   0A19 33                 3933 	inc	sp
                           3934 ; genCall
   0A1A CD 00 00           3935 	call	_move_sprite
   0A1D E8 03              3936 	lda	sp,3(sp)
                           3937 ;	game/main.c 293
                           3938 ; genOr
                           3939 ; AOP_SFR for _LCDC_REG
                           3940 ; Type res[4] = l[4]&r[1]
                           3941 ; Size res[1] = l[1]&r[1]
   0A1F F0 00              3942 	ldh	a,(_LCDC_REG+0) ; x
   0A21 F6 02              3943 	or	a,#0x02
   0A23 E0 00              3944 	ldh	(_LCDC_REG+0),a
                           3945 ;	game/main.c 294
                           3946 ; genCall
   0A25 CD BE 00           3947 	call	_fadein
                           3948 ;	game/main.c 295
                           3949 ; genCall
   0A28 CD C8 08           3950 	call	_init_music
                           3951 ; genLabel
   0A2B                    3952 00101$:
                           3953 ; genEndFunction
   0A2B E8 05              3954 	lda	sp,5(sp)
   0A2D C1                 3955 	pop	bc
   0A2E C9                 3956 	ret
   0A2F                    3957 ___init_end:
                           3958 ;	game/main.c 300
                           3959 ; genLabel
                           3960 ; genFunction
                           3961 ;	---------------------------------
                           3962 ; Function main
                           3963 ; ---------------------------------
   0A2F                    3964 ___main_start:
   0A2F                    3965 _main:
                           3966 	
                           3967 ;	game/main.c 301
                           3968 ; genOr
                           3969 ; AOP_SFR for _LCDC_REG
                           3970 ; Type res[4] = l[4]&r[1]
                           3971 ; Size res[1] = l[1]&r[1]
   0A2F F0 00              3972 	ldh	a,(_LCDC_REG+0) ; x
   0A31 F6 80              3973 	or	a,#0x80
   0A33 E0 00              3974 	ldh	(_LCDC_REG+0),a
                           3975 ;	game/main.c 303
                           3976 ; genCall
   0A35 CD 21 01           3977 	call	_splash
                           3978 ;	game/main.c 305
                           3979 ; genCall
   0A38 CD F2 08           3980 	call	_init
                           3981 ;	game/main.c 308
                           3982 ; genLabel
   0A3B                    3983 00101$:
                           3984 ; genCmpEq
                           3985 ; AOP_HL for _state
   0A3B 21 00 00           3986 	ld	hl,#_state + 0
   0A3E 7E                 3987 	ld	a,(hl)
   0A3F B7                 3988 	or	a,a
   0A40 C2 45 0A           3989 	jp	nz,00111$
   0A43 18 03              3990 	jr	00112$
   0A45                    3991 00111$:
   0A45 C3 3B 0A           3992 	jp	00101$
   0A48                    3993 00112$:
                           3994 ;	game/main.c 309
                           3995 ; genIpush
   0A48 3E 01              3996 	ld	a,#0x01
   0A4A F5                 3997 	push	af
   0A4B 33                 3998 	inc	sp
                           3999 ; genCall
   0A4C CD 00 00           4000 	call	_cicled_delay
   0A4F E8 01              4001 	lda	sp,1(sp)
                           4002 ;	game/main.c 310
                           4003 ; genCall
   0A51 CD AA 06           4004 	call	_animate_player
                           4005 ;	game/main.c 311
                           4006 ; genCall
   0A54 CD EE 05           4007 	call	_process_input
                           4008 ;	game/main.c 312
                           4009 ; genCall
   0A57 CD 5C 03           4010 	call	_scroll_player_sprite
                           4011 ;	game/main.c 313
                           4012 ; genPlus
                           4013 ; AOP_HL for _timer
                           4014 ; genPlusIncr
   0A5A 21 11 00           4015 	ld	hl,#_timer + 0
   0A5D 34                 4016 	inc	(hl)
   0A5E 20 02              4017 	jr	nz,00113$
   0A60 23                 4018 	inc	hl
   0A61 34                 4019 	inc	(hl)
   0A62                    4020 00113$:
                           4021 ;	game/main.c 314
                           4022 ; genCall
   0A62 CD 00 00           4023 	call	_gbt_update
                           4024 ; genGoto
   0A65 C3 3B 0A           4025 	jp	00101$
                           4026 ; genLabel
   0A68                    4027 00107$:
                           4028 ; genEndFunction
                           4029 	
   0A68 C9                 4030 	ret
   0A69                    4031 ___main_end:
                           4032 	.area _CODE
ASxxxx Assembler V01.75  (GameBoy Z80-like CPU), page 1.

Symbol Table

    _BCPD_REG                          **** GX
    _BCPS_REG                          **** GX
    _BGP_REG                           **** GX
    _Bg                                **** GX
    _BgTiles                           **** GX
    _DIV_REG                           **** GX
    _DMA_REG                           **** GX
    _HDMA1_REG                         **** GX
    _HDMA2_REG                         **** GX
    _HDMA3_REG                         **** GX
    _HDMA4_REG                         **** GX
    _HDMA5_REG                         **** GX
    _Hammer                            **** GX
    _IE_REG                            **** GX
    _IF_REG                            **** GX
    _KEY1_REG                          **** GX
    _LCDC_REG                          **** GX
    _LYC_REG                           **** GX
    _LY_REG                            **** GX
    _NR10_REG                          **** GX
    _NR11_REG                          **** GX
    _NR12_REG                          **** GX
    _NR13_REG                          **** GX
    _NR14_REG                          **** GX
    _NR21_REG                          **** GX
    _NR22_REG                          **** GX
    _NR23_REG                          **** GX
    _NR24_REG                          **** GX
    _NR30_REG                          **** GX
    _NR31_REG                          **** GX
    _NR32_REG                          **** GX
    _NR33_REG                          **** GX
    _NR34_REG                          **** GX
    _NR41_REG                          **** GX
    _NR42_REG                          **** GX
    _NR43_REG                          **** GX
    _NR44_REG                          **** GX
    _NR50_REG                          **** GX
    _NR51_REG                          **** GX
    _NR52_REG                          **** GX
    _OBP0_REG                          **** GX
    _OBP1_REG                          **** GX
    _OCPD_REG                          **** GX
    _OCPS_REG                          **** GX
    _P1_REG                            **** GX
    _Player                            **** GX
    _RP_REG                            **** GX
    _SB_REG                            **** GX
    _SCX_REG                           **** GX
    _SCY_REG                           **** GX
    _SC_REG                            **** GX
    _STAT_REG                          **** GX
    _SVBK_REG                          **** GX
    _SplashMap                         **** GX
    _SplashTiles                       **** GX
    _TAC_REG                           **** GX
    _TIMA_REG                          **** GX
    _TMA_REG                           **** GX
    _VBK_REG                           **** GX
    _WX_REG                            **** GX
    _WY_REG                            **** GX
  0 ___animate_player_end              08C8 R
  0 ___animate_player_start            06AA R
  0 ___cicled_delay_end                0014 R
  0 ___cicled_delay_start              0000 R
  0 ___fadein_end                      0121 R
  0 ___fadein_start                    00BE R
  0 ___fadeout_end                     00BE R
  0 ___fadeout_start                   005B R
  0 ___generate_random_number_end      002E R
  0 ___generate_random_number_start    0014 R
  0 ___init_end                        0A2F R
  0 ___init_music_end                  08F2 R
  0 ___init_music_start                08C8 R
  0 ___init_start                      08F2 R
  0 ___main_end                        0A69 R
  0 ___main_start                      0A2F R
  0 ___play_sound_end                  005B R
  0 ___play_sound_start                002E R
  0 ___process_input_end               06AA R
  0 ___process_input_start             05EE R
  0 ___process_player_position_end     05EE R
  0 ___process_player_position_start   051F R
  0 ___requires_offset_end             035C R
  0 ___requires_offset_start           016A R
  0 ___scroll_player_sprite_end        051F R
  0 ___scroll_player_sprite_start      035C R
  0 ___splash_end                      016A R
  0 ___splash_start                    0121 R
    __cpu                              **** GX
    __io_in                            **** GX
    __io_out                           **** GX
    __io_status                        **** GX
    __modschar                         **** GX
    __moduint                          **** GX
  0 _animate_player                    06AA GR
  1 _can_process                       0002 GR
  0 _cicled_delay                      0000 GR
    _disable_interrupts                **** GX
    _enable_interrupts                 **** GX
  0 _fadein                            00BE GR
  0 _fadeout                           005B GR
  1 _frame_counter                     0009 GR
    _gbt_loop                          **** GX
    _gbt_play                          **** GX
    _gbt_update                        **** GX
  0 _generate_random_number            0014 GR
    _get_sprite_prop                   **** GX
  1 _hammer_tile                       0003 GR
  1 _has_reached                       0008 GR
  0 _init                              08F2 GR
  0 _init_music                        08C8 GR
    _joypad                            **** GX
  0 _main                              0A2F GR
    _move_sprite                       **** GX
  1 _movements                         0013 GR
  1 _offset_x                          0001 GR
  0 _play_sound                        002E GR
  1 _player_direction                  000F GR
  1 _player_new_x                      00A7 GR
  1 _player_new_y                      00A9 GR
  1 _player_position                   0005 GR
  1 _player_tile                       0004 GR
  1 _player_x                          00A3 GR
  1 _player_x_diff                     000B GR
  1 _player_y                          00A5 GR
  1 _player_y_diff                     000D GR
  1 _positions                         0073 GR
  0 _process_input                     05EE GR
  0 _process_player_position           051F GR
    _rand                              **** GX
  0 _requires_offset                   016A GR
  1 _requires_scrolling_x              0006 GR
  1 _requires_scrolling_y              0007 GR
  0 _scroll_player_sprite              035C GR
    _scroll_sprite                     **** GX
    _set_bkg_data                      **** GX
    _set_bkg_tiles                     **** GX
    _set_interrupts                    **** GX
    _set_sprite_data                   **** GX
    _set_sprite_prop                   **** GX
    _set_sprite_tile                   **** GX
    _song_Data                         **** GX
  0 _splash                            0121 GR
  1 _state                             0000 GR
    _sys_time                          **** GX
  1 _timer                             0011 GR
    _wait_vbl_done                     **** GX
    _waitpad                           **** GX

ASxxxx Assembler V01.75  (GameBoy Z80-like CPU), page 2.

Area Table

   0 _CODE                              size  A69   flags 0
   1 _DATA                              size   AB   flags 0
   2 _OVERLAY                           size    0   flags 0
   3 _ISEG                              size    0   flags 0
   4 _BSEG                              size    0   flags 0
   5 _XSEG                              size    0   flags 0
   6 _GSINIT                            size  401   flags 0
   7 _GSFINAL                           size    0   flags 0
   8 _HOME                              size    0   flags 0
